

Microchip MPLAB XC8 Assembler V2.35 build 20211206165544 
                                                                                               Sun Jan 23 19:49:16 2022

Microchip MPLAB XC8 C Compiler v2.35 (Free license) build 20211206165544 Og1 
     1                           	processor	12F1572
     2                           	pagewidth 120
     3                           	opt	flic
     4                           	psect	stringtext1,global,class=STRCODE,delta=2,noexec
     5                           	psect	cinit,global,class=CODE,merge=1,delta=2
     6                           	psect	cstackCOMMON,global,class=COMMON,space=1,delta=1,noexec
     7                           	psect	cstackBANK0,global,class=BANK0,space=1,delta=1,noexec
     8                           	psect	maintext,global,class=CODE,merge=1,split=1,delta=2
     9                           	psect	text1,local,class=CODE,merge=1,delta=2
    10                           	psect	text2,local,class=CODE,merge=1,delta=2
    11                           	psect	text3,local,class=CODE,merge=1,delta=2
    12                           	psect	text4,local,class=CODE,merge=1,delta=2
    13                           	psect	text5,local,class=CODE,merge=1,delta=2
    14                           	psect	text6,local,class=CODE,merge=1,delta=2
    15                           	psect	text7,local,class=CODE,merge=1,delta=2
    16                           	psect	text8,local,class=CODE,merge=1,delta=2
    17                           	psect	text9,local,class=CODE,merge=1,delta=2
    18                           	psect	text10,local,class=CODE,merge=1,delta=2,group=1
    19                           	psect	text11,local,class=CODE,merge=1,delta=2
    20                           	psect	idloc,global,abs,ovrld,class=IDLOC,space=5,delta=2,noexec
    21                           	psect	config,global,abs,ovrld,class=CONFIG,space=4,delta=2,noexec
    22                           	dabs	1,0x7E,2
    23  0000                     
    24                           ; Version 2.40
    25                           ; Generated 17/11/2021 GMT
    26                           ; 
    27                           ; Copyright © 2021, Microchip Technology Inc. and its subsidiaries ("Microchip")
    28                           ; All rights reserved.
    29                           ; 
    30                           ; This software is developed by Microchip Technology Inc. and its subsidiaries ("Microch
      +                          ip").
    31                           ; 
    32                           ; Redistribution and use in source and binary forms, with or without modification, are
    33                           ; permitted provided that the following conditions are met:
    34                           ; 
    35                           ;     1. Redistributions of source code must retain the above copyright notice, this lis
      +                          t of
    36                           ;        conditions and the following disclaimer.
    37                           ; 
    38                           ;     2. Redistributions in binary form must reproduce the above copyright notice, this 
      +                          list
    39                           ;        of conditions and the following disclaimer in the documentation and/or other
    40                           ;        materials provided with the distribution. Publication is not required when
    41                           ;        this file is used in an embedded application.
    42                           ; 
    43                           ;     3. Microchip's name may not be used to endorse or promote products derived from th
      +                          is
    44                           ;        software without specific prior written permission.
    45                           ; 
    46                           ; THIS SOFTWARE IS PROVIDED BY MICROCHIP "AS IS" AND ANY EXPRESS OR IMPLIED WARRANTIES,
    47                           ; INCLUDING, BUT NOT LIMITED TO, THE IMPLIED WARRANTIES OF MERCHANTABILITY AND FITNESS F
      +                          OR
    48                           ; PURPOSE ARE DISCLAIMED.  IN NO EVENT SHALL MICROCHIP BE LIABLE FOR ANY DIRECT, INDIREC
      +                          T,
    49                           ; INCIDENTAL, SPECIAL, EXEMPLARY, OR CONSEQUENTIAL DAMAGES (INCLUDING BUT NOT LIMITED TO
    50                           ; PROCUREMENT OF SUBSTITUTE GOODS OR SERVICES; LOSS OF USE, DATA OR PROFITS; OR BUSINESS
    51                           ; INTERRUPTION) HOWSOEVER CAUSED AND ON ANY THEORY OF LIABILITY, WHETHER IN CONTRACT, ST
      +                          RICT
    52                           ; LIABILITY, OR TORT (INCLUDING NEGLIGENCE OR OTHERWISE) ARISING IN ANY WAY OUT OF THE U
      +                          SE OF
    53                           ; THIS SOFTWARE, EVEN IF ADVISED OF THE POSSIBILITY OF SUCH DAMAGE.
    54                           ; 
    55                           ; 
    56                           ; Code-generator required, PIC12F1572 Definitions
    57                           ; 
    58                           ; SFR Addresses
    59  0000                     	;# 
    60  0001                     	;# 
    61  0002                     	;# 
    62  0003                     	;# 
    63  0004                     	;# 
    64  0005                     	;# 
    65  0006                     	;# 
    66  0007                     	;# 
    67  0008                     	;# 
    68  0009                     	;# 
    69  000A                     	;# 
    70  000B                     	;# 
    71  000C                     	;# 
    72  0011                     	;# 
    73  0012                     	;# 
    74  0013                     	;# 
    75  0015                     	;# 
    76  0016                     	;# 
    77  0016                     	;# 
    78  0017                     	;# 
    79  0018                     	;# 
    80  0019                     	;# 
    81  001A                     	;# 
    82  001B                     	;# 
    83  001C                     	;# 
    84  008C                     	;# 
    85  0091                     	;# 
    86  0092                     	;# 
    87  0093                     	;# 
    88  0095                     	;# 
    89  0096                     	;# 
    90  0097                     	;# 
    91  0098                     	;# 
    92  0099                     	;# 
    93  009A                     	;# 
    94  009B                     	;# 
    95  009B                     	;# 
    96  009C                     	;# 
    97  009D                     	;# 
    98  009E                     	;# 
    99  009F                     	;# 
   100  010C                     	;# 
   101  0111                     	;# 
   102  0112                     	;# 
   103  0115                     	;# 
   104  0116                     	;# 
   105  0117                     	;# 
   106  0118                     	;# 
   107  0119                     	;# 
   108  011D                     	;# 
   109  011D                     	;# 
   110  018C                     	;# 
   111  0191                     	;# 
   112  0191                     	;# 
   113  0192                     	;# 
   114  0193                     	;# 
   115  0193                     	;# 
   116  0194                     	;# 
   117  0195                     	;# 
   118  0196                     	;# 
   119  0197                     	;# 
   120  0199                     	;# 
   121  019A                     	;# 
   122  019B                     	;# 
   123  019B                     	;# 
   124  019C                     	;# 
   125  019D                     	;# 
   126  019E                     	;# 
   127  019F                     	;# 
   128  020C                     	;# 
   129  028C                     	;# 
   130  030C                     	;# 
   131  038C                     	;# 
   132  0391                     	;# 
   133  0392                     	;# 
   134  0393                     	;# 
   135  0691                     	;# 
   136  0692                     	;# 
   137  0693                     	;# 
   138  0694                     	;# 
   139  0695                     	;# 
   140  0D8E                     	;# 
   141  0D8F                     	;# 
   142  0D90                     	;# 
   143  0D91                     	;# 
   144  0D91                     	;# 
   145  0D92                     	;# 
   146  0D93                     	;# 
   147  0D93                     	;# 
   148  0D94                     	;# 
   149  0D95                     	;# 
   150  0D95                     	;# 
   151  0D96                     	;# 
   152  0D97                     	;# 
   153  0D97                     	;# 
   154  0D98                     	;# 
   155  0D99                     	;# 
   156  0D99                     	;# 
   157  0D9A                     	;# 
   158  0D9B                     	;# 
   159  0D9C                     	;# 
   160  0D9C                     	;# 
   161  0D9D                     	;# 
   162  0D9D                     	;# 
   163  0D9E                     	;# 
   164  0D9F                     	;# 
   165  0DA0                     	;# 
   166  0DA1                     	;# 
   167  0DA1                     	;# 
   168  0DA2                     	;# 
   169  0DA3                     	;# 
   170  0DA3                     	;# 
   171  0DA4                     	;# 
   172  0DA5                     	;# 
   173  0DA5                     	;# 
   174  0DA6                     	;# 
   175  0DA7                     	;# 
   176  0DA7                     	;# 
   177  0DA8                     	;# 
   178  0DA9                     	;# 
   179  0DA9                     	;# 
   180  0DAA                     	;# 
   181  0DAB                     	;# 
   182  0DAC                     	;# 
   183  0DAC                     	;# 
   184  0DAD                     	;# 
   185  0DAD                     	;# 
   186  0DAE                     	;# 
   187  0DAF                     	;# 
   188  0DB0                     	;# 
   189  0DB1                     	;# 
   190  0DB1                     	;# 
   191  0DB2                     	;# 
   192  0DB3                     	;# 
   193  0DB3                     	;# 
   194  0DB4                     	;# 
   195  0DB5                     	;# 
   196  0DB5                     	;# 
   197  0DB6                     	;# 
   198  0DB7                     	;# 
   199  0DB7                     	;# 
   200  0DB8                     	;# 
   201  0DB9                     	;# 
   202  0DB9                     	;# 
   203  0DBA                     	;# 
   204  0DBB                     	;# 
   205  0DBC                     	;# 
   206  0DBC                     	;# 
   207  0DBD                     	;# 
   208  0DBD                     	;# 
   209  0DBE                     	;# 
   210  0DBF                     	;# 
   211  0DC0                     	;# 
   212  0FE4                     	;# 
   213  0FE5                     	;# 
   214  0FE6                     	;# 
   215  0FE7                     	;# 
   216  0FE8                     	;# 
   217  0FE8                     	;# 
   218  0FE9                     	;# 
   219  0FEA                     	;# 
   220  0FEA                     	;# 
   221  0FEB                     	;# 
   222  0FED                     	;# 
   223  0FEE                     	;# 
   224  0FEE                     	;# 
   225  0FEF                     	;# 
   226  0000                     	;# 
   227  0001                     	;# 
   228  0002                     	;# 
   229  0003                     	;# 
   230  0004                     	;# 
   231  0005                     	;# 
   232  0006                     	;# 
   233  0007                     	;# 
   234  0008                     	;# 
   235  0009                     	;# 
   236  000A                     	;# 
   237  000B                     	;# 
   238  000C                     	;# 
   239  0011                     	;# 
   240  0012                     	;# 
   241  0013                     	;# 
   242  0015                     	;# 
   243  0016                     	;# 
   244  0016                     	;# 
   245  0017                     	;# 
   246  0018                     	;# 
   247  0019                     	;# 
   248  001A                     	;# 
   249  001B                     	;# 
   250  001C                     	;# 
   251  008C                     	;# 
   252  0091                     	;# 
   253  0092                     	;# 
   254  0093                     	;# 
   255  0095                     	;# 
   256  0096                     	;# 
   257  0097                     	;# 
   258  0098                     	;# 
   259  0099                     	;# 
   260  009A                     	;# 
   261  009B                     	;# 
   262  009B                     	;# 
   263  009C                     	;# 
   264  009D                     	;# 
   265  009E                     	;# 
   266  009F                     	;# 
   267  010C                     	;# 
   268  0111                     	;# 
   269  0112                     	;# 
   270  0115                     	;# 
   271  0116                     	;# 
   272  0117                     	;# 
   273  0118                     	;# 
   274  0119                     	;# 
   275  011D                     	;# 
   276  011D                     	;# 
   277  018C                     	;# 
   278  0191                     	;# 
   279  0191                     	;# 
   280  0192                     	;# 
   281  0193                     	;# 
   282  0193                     	;# 
   283  0194                     	;# 
   284  0195                     	;# 
   285  0196                     	;# 
   286  0197                     	;# 
   287  0199                     	;# 
   288  019A                     	;# 
   289  019B                     	;# 
   290  019B                     	;# 
   291  019C                     	;# 
   292  019D                     	;# 
   293  019E                     	;# 
   294  019F                     	;# 
   295  020C                     	;# 
   296  028C                     	;# 
   297  030C                     	;# 
   298  038C                     	;# 
   299  0391                     	;# 
   300  0392                     	;# 
   301  0393                     	;# 
   302  0691                     	;# 
   303  0692                     	;# 
   304  0693                     	;# 
   305  0694                     	;# 
   306  0695                     	;# 
   307  0D8E                     	;# 
   308  0D8F                     	;# 
   309  0D90                     	;# 
   310  0D91                     	;# 
   311  0D91                     	;# 
   312  0D92                     	;# 
   313  0D93                     	;# 
   314  0D93                     	;# 
   315  0D94                     	;# 
   316  0D95                     	;# 
   317  0D95                     	;# 
   318  0D96                     	;# 
   319  0D97                     	;# 
   320  0D97                     	;# 
   321  0D98                     	;# 
   322  0D99                     	;# 
   323  0D99                     	;# 
   324  0D9A                     	;# 
   325  0D9B                     	;# 
   326  0D9C                     	;# 
   327  0D9C                     	;# 
   328  0D9D                     	;# 
   329  0D9D                     	;# 
   330  0D9E                     	;# 
   331  0D9F                     	;# 
   332  0DA0                     	;# 
   333  0DA1                     	;# 
   334  0DA1                     	;# 
   335  0DA2                     	;# 
   336  0DA3                     	;# 
   337  0DA3                     	;# 
   338  0DA4                     	;# 
   339  0DA5                     	;# 
   340  0DA5                     	;# 
   341  0DA6                     	;# 
   342  0DA7                     	;# 
   343  0DA7                     	;# 
   344  0DA8                     	;# 
   345  0DA9                     	;# 
   346  0DA9                     	;# 
   347  0DAA                     	;# 
   348  0DAB                     	;# 
   349  0DAC                     	;# 
   350  0DAC                     	;# 
   351  0DAD                     	;# 
   352  0DAD                     	;# 
   353  0DAE                     	;# 
   354  0DAF                     	;# 
   355  0DB0                     	;# 
   356  0DB1                     	;# 
   357  0DB1                     	;# 
   358  0DB2                     	;# 
   359  0DB3                     	;# 
   360  0DB3                     	;# 
   361  0DB4                     	;# 
   362  0DB5                     	;# 
   363  0DB5                     	;# 
   364  0DB6                     	;# 
   365  0DB7                     	;# 
   366  0DB7                     	;# 
   367  0DB8                     	;# 
   368  0DB9                     	;# 
   369  0DB9                     	;# 
   370  0DBA                     	;# 
   371  0DBB                     	;# 
   372  0DBC                     	;# 
   373  0DBC                     	;# 
   374  0DBD                     	;# 
   375  0DBD                     	;# 
   376  0DBE                     	;# 
   377  0DBF                     	;# 
   378  0DC0                     	;# 
   379  0FE4                     	;# 
   380  0FE5                     	;# 
   381  0FE6                     	;# 
   382  0FE7                     	;# 
   383  0FE8                     	;# 
   384  0FE8                     	;# 
   385  0FE9                     	;# 
   386  0FEA                     	;# 
   387  0FEA                     	;# 
   388  0FEB                     	;# 
   389  0FED                     	;# 
   390  0FEE                     	;# 
   391  0FEE                     	;# 
   392  0FEF                     	;# 
   393  0000                     	;# 
   394  0001                     	;# 
   395  0002                     	;# 
   396  0003                     	;# 
   397  0004                     	;# 
   398  0005                     	;# 
   399  0006                     	;# 
   400  0007                     	;# 
   401  0008                     	;# 
   402  0009                     	;# 
   403  000A                     	;# 
   404  000B                     	;# 
   405  000C                     	;# 
   406  0011                     	;# 
   407  0012                     	;# 
   408  0013                     	;# 
   409  0015                     	;# 
   410  0016                     	;# 
   411  0016                     	;# 
   412  0017                     	;# 
   413  0018                     	;# 
   414  0019                     	;# 
   415  001A                     	;# 
   416  001B                     	;# 
   417  001C                     	;# 
   418  008C                     	;# 
   419  0091                     	;# 
   420  0092                     	;# 
   421  0093                     	;# 
   422  0095                     	;# 
   423  0096                     	;# 
   424  0097                     	;# 
   425  0098                     	;# 
   426  0099                     	;# 
   427  009A                     	;# 
   428  009B                     	;# 
   429  009B                     	;# 
   430  009C                     	;# 
   431  009D                     	;# 
   432  009E                     	;# 
   433  009F                     	;# 
   434  010C                     	;# 
   435  0111                     	;# 
   436  0112                     	;# 
   437  0115                     	;# 
   438  0116                     	;# 
   439  0117                     	;# 
   440  0118                     	;# 
   441  0119                     	;# 
   442  011D                     	;# 
   443  011D                     	;# 
   444  018C                     	;# 
   445  0191                     	;# 
   446  0191                     	;# 
   447  0192                     	;# 
   448  0193                     	;# 
   449  0193                     	;# 
   450  0194                     	;# 
   451  0195                     	;# 
   452  0196                     	;# 
   453  0197                     	;# 
   454  0199                     	;# 
   455  019A                     	;# 
   456  019B                     	;# 
   457  019B                     	;# 
   458  019C                     	;# 
   459  019D                     	;# 
   460  019E                     	;# 
   461  019F                     	;# 
   462  020C                     	;# 
   463  028C                     	;# 
   464  030C                     	;# 
   465  038C                     	;# 
   466  0391                     	;# 
   467  0392                     	;# 
   468  0393                     	;# 
   469  0691                     	;# 
   470  0692                     	;# 
   471  0693                     	;# 
   472  0694                     	;# 
   473  0695                     	;# 
   474  0D8E                     	;# 
   475  0D8F                     	;# 
   476  0D90                     	;# 
   477  0D91                     	;# 
   478  0D91                     	;# 
   479  0D92                     	;# 
   480  0D93                     	;# 
   481  0D93                     	;# 
   482  0D94                     	;# 
   483  0D95                     	;# 
   484  0D95                     	;# 
   485  0D96                     	;# 
   486  0D97                     	;# 
   487  0D97                     	;# 
   488  0D98                     	;# 
   489  0D99                     	;# 
   490  0D99                     	;# 
   491  0D9A                     	;# 
   492  0D9B                     	;# 
   493  0D9C                     	;# 
   494  0D9C                     	;# 
   495  0D9D                     	;# 
   496  0D9D                     	;# 
   497  0D9E                     	;# 
   498  0D9F                     	;# 
   499  0DA0                     	;# 
   500  0DA1                     	;# 
   501  0DA1                     	;# 
   502  0DA2                     	;# 
   503  0DA3                     	;# 
   504  0DA3                     	;# 
   505  0DA4                     	;# 
   506  0DA5                     	;# 
   507  0DA5                     	;# 
   508  0DA6                     	;# 
   509  0DA7                     	;# 
   510  0DA7                     	;# 
   511  0DA8                     	;# 
   512  0DA9                     	;# 
   513  0DA9                     	;# 
   514  0DAA                     	;# 
   515  0DAB                     	;# 
   516  0DAC                     	;# 
   517  0DAC                     	;# 
   518  0DAD                     	;# 
   519  0DAD                     	;# 
   520  0DAE                     	;# 
   521  0DAF                     	;# 
   522  0DB0                     	;# 
   523  0DB1                     	;# 
   524  0DB1                     	;# 
   525  0DB2                     	;# 
   526  0DB3                     	;# 
   527  0DB3                     	;# 
   528  0DB4                     	;# 
   529  0DB5                     	;# 
   530  0DB5                     	;# 
   531  0DB6                     	;# 
   532  0DB7                     	;# 
   533  0DB7                     	;# 
   534  0DB8                     	;# 
   535  0DB9                     	;# 
   536  0DB9                     	;# 
   537  0DBA                     	;# 
   538  0DBB                     	;# 
   539  0DBC                     	;# 
   540  0DBC                     	;# 
   541  0DBD                     	;# 
   542  0DBD                     	;# 
   543  0DBE                     	;# 
   544  0DBF                     	;# 
   545  0DC0                     	;# 
   546  0FE4                     	;# 
   547  0FE5                     	;# 
   548  0FE6                     	;# 
   549  0FE7                     	;# 
   550  0FE8                     	;# 
   551  0FE8                     	;# 
   552  0FE9                     	;# 
   553  0FEA                     	;# 
   554  0FEA                     	;# 
   555  0FEB                     	;# 
   556  0FED                     	;# 
   557  0FEE                     	;# 
   558  0FEE                     	;# 
   559  0FEF                     	;# 
   560  0000                     	;# 
   561  0001                     	;# 
   562  0002                     	;# 
   563  0003                     	;# 
   564  0004                     	;# 
   565  0005                     	;# 
   566  0006                     	;# 
   567  0007                     	;# 
   568  0008                     	;# 
   569  0009                     	;# 
   570  000A                     	;# 
   571  000B                     	;# 
   572  000C                     	;# 
   573  0011                     	;# 
   574  0012                     	;# 
   575  0013                     	;# 
   576  0015                     	;# 
   577  0016                     	;# 
   578  0016                     	;# 
   579  0017                     	;# 
   580  0018                     	;# 
   581  0019                     	;# 
   582  001A                     	;# 
   583  001B                     	;# 
   584  001C                     	;# 
   585  008C                     	;# 
   586  0091                     	;# 
   587  0092                     	;# 
   588  0093                     	;# 
   589  0095                     	;# 
   590  0096                     	;# 
   591  0097                     	;# 
   592  0098                     	;# 
   593  0099                     	;# 
   594  009A                     	;# 
   595  009B                     	;# 
   596  009B                     	;# 
   597  009C                     	;# 
   598  009D                     	;# 
   599  009E                     	;# 
   600  009F                     	;# 
   601  010C                     	;# 
   602  0111                     	;# 
   603  0112                     	;# 
   604  0115                     	;# 
   605  0116                     	;# 
   606  0117                     	;# 
   607  0118                     	;# 
   608  0119                     	;# 
   609  011D                     	;# 
   610  011D                     	;# 
   611  018C                     	;# 
   612  0191                     	;# 
   613  0191                     	;# 
   614  0192                     	;# 
   615  0193                     	;# 
   616  0193                     	;# 
   617  0194                     	;# 
   618  0195                     	;# 
   619  0196                     	;# 
   620  0197                     	;# 
   621  0199                     	;# 
   622  019A                     	;# 
   623  019B                     	;# 
   624  019B                     	;# 
   625  019C                     	;# 
   626  019D                     	;# 
   627  019E                     	;# 
   628  019F                     	;# 
   629  020C                     	;# 
   630  028C                     	;# 
   631  030C                     	;# 
   632  038C                     	;# 
   633  0391                     	;# 
   634  0392                     	;# 
   635  0393                     	;# 
   636  0691                     	;# 
   637  0692                     	;# 
   638  0693                     	;# 
   639  0694                     	;# 
   640  0695                     	;# 
   641  0D8E                     	;# 
   642  0D8F                     	;# 
   643  0D90                     	;# 
   644  0D91                     	;# 
   645  0D91                     	;# 
   646  0D92                     	;# 
   647  0D93                     	;# 
   648  0D93                     	;# 
   649  0D94                     	;# 
   650  0D95                     	;# 
   651  0D95                     	;# 
   652  0D96                     	;# 
   653  0D97                     	;# 
   654  0D97                     	;# 
   655  0D98                     	;# 
   656  0D99                     	;# 
   657  0D99                     	;# 
   658  0D9A                     	;# 
   659  0D9B                     	;# 
   660  0D9C                     	;# 
   661  0D9C                     	;# 
   662  0D9D                     	;# 
   663  0D9D                     	;# 
   664  0D9E                     	;# 
   665  0D9F                     	;# 
   666  0DA0                     	;# 
   667  0DA1                     	;# 
   668  0DA1                     	;# 
   669  0DA2                     	;# 
   670  0DA3                     	;# 
   671  0DA3                     	;# 
   672  0DA4                     	;# 
   673  0DA5                     	;# 
   674  0DA5                     	;# 
   675  0DA6                     	;# 
   676  0DA7                     	;# 
   677  0DA7                     	;# 
   678  0DA8                     	;# 
   679  0DA9                     	;# 
   680  0DA9                     	;# 
   681  0DAA                     	;# 
   682  0DAB                     	;# 
   683  0DAC                     	;# 
   684  0DAC                     	;# 
   685  0DAD                     	;# 
   686  0DAD                     	;# 
   687  0DAE                     	;# 
   688  0DAF                     	;# 
   689  0DB0                     	;# 
   690  0DB1                     	;# 
   691  0DB1                     	;# 
   692  0DB2                     	;# 
   693  0DB3                     	;# 
   694  0DB3                     	;# 
   695  0DB4                     	;# 
   696  0DB5                     	;# 
   697  0DB5                     	;# 
   698  0DB6                     	;# 
   699  0DB7                     	;# 
   700  0DB7                     	;# 
   701  0DB8                     	;# 
   702  0DB9                     	;# 
   703  0DB9                     	;# 
   704  0DBA                     	;# 
   705  0DBB                     	;# 
   706  0DBC                     	;# 
   707  0DBC                     	;# 
   708  0DBD                     	;# 
   709  0DBD                     	;# 
   710  0DBE                     	;# 
   711  0DBF                     	;# 
   712  0DC0                     	;# 
   713  0FE4                     	;# 
   714  0FE5                     	;# 
   715  0FE6                     	;# 
   716  0FE7                     	;# 
   717  0FE8                     	;# 
   718  0FE8                     	;# 
   719  0FE9                     	;# 
   720  0FEA                     	;# 
   721  0FEA                     	;# 
   722  0FEB                     	;# 
   723  0FED                     	;# 
   724  0FEE                     	;# 
   725  0FEE                     	;# 
   726  0FEF                     	;# 
   727  0000                     	;# 
   728  0001                     	;# 
   729  0002                     	;# 
   730  0003                     	;# 
   731  0004                     	;# 
   732  0005                     	;# 
   733  0006                     	;# 
   734  0007                     	;# 
   735  0008                     	;# 
   736  0009                     	;# 
   737  000A                     	;# 
   738  000B                     	;# 
   739  000C                     	;# 
   740  0011                     	;# 
   741  0012                     	;# 
   742  0013                     	;# 
   743  0015                     	;# 
   744  0016                     	;# 
   745  0016                     	;# 
   746  0017                     	;# 
   747  0018                     	;# 
   748  0019                     	;# 
   749  001A                     	;# 
   750  001B                     	;# 
   751  001C                     	;# 
   752  008C                     	;# 
   753  0091                     	;# 
   754  0092                     	;# 
   755  0093                     	;# 
   756  0095                     	;# 
   757  0096                     	;# 
   758  0097                     	;# 
   759  0098                     	;# 
   760  0099                     	;# 
   761  009A                     	;# 
   762  009B                     	;# 
   763  009B                     	;# 
   764  009C                     	;# 
   765  009D                     	;# 
   766  009E                     	;# 
   767  009F                     	;# 
   768  010C                     	;# 
   769  0111                     	;# 
   770  0112                     	;# 
   771  0115                     	;# 
   772  0116                     	;# 
   773  0117                     	;# 
   774  0118                     	;# 
   775  0119                     	;# 
   776  011D                     	;# 
   777  011D                     	;# 
   778  018C                     	;# 
   779  0191                     	;# 
   780  0191                     	;# 
   781  0192                     	;# 
   782  0193                     	;# 
   783  0193                     	;# 
   784  0194                     	;# 
   785  0195                     	;# 
   786  0196                     	;# 
   787  0197                     	;# 
   788  0199                     	;# 
   789  019A                     	;# 
   790  019B                     	;# 
   791  019B                     	;# 
   792  019C                     	;# 
   793  019D                     	;# 
   794  019E                     	;# 
   795  019F                     	;# 
   796  020C                     	;# 
   797  028C                     	;# 
   798  030C                     	;# 
   799  038C                     	;# 
   800  0391                     	;# 
   801  0392                     	;# 
   802  0393                     	;# 
   803  0691                     	;# 
   804  0692                     	;# 
   805  0693                     	;# 
   806  0694                     	;# 
   807  0695                     	;# 
   808  0D8E                     	;# 
   809  0D8F                     	;# 
   810  0D90                     	;# 
   811  0D91                     	;# 
   812  0D91                     	;# 
   813  0D92                     	;# 
   814  0D93                     	;# 
   815  0D93                     	;# 
   816  0D94                     	;# 
   817  0D95                     	;# 
   818  0D95                     	;# 
   819  0D96                     	;# 
   820  0D97                     	;# 
   821  0D97                     	;# 
   822  0D98                     	;# 
   823  0D99                     	;# 
   824  0D99                     	;# 
   825  0D9A                     	;# 
   826  0D9B                     	;# 
   827  0D9C                     	;# 
   828  0D9C                     	;# 
   829  0D9D                     	;# 
   830  0D9D                     	;# 
   831  0D9E                     	;# 
   832  0D9F                     	;# 
   833  0DA0                     	;# 
   834  0DA1                     	;# 
   835  0DA1                     	;# 
   836  0DA2                     	;# 
   837  0DA3                     	;# 
   838  0DA3                     	;# 
   839  0DA4                     	;# 
   840  0DA5                     	;# 
   841  0DA5                     	;# 
   842  0DA6                     	;# 
   843  0DA7                     	;# 
   844  0DA7                     	;# 
   845  0DA8                     	;# 
   846  0DA9                     	;# 
   847  0DA9                     	;# 
   848  0DAA                     	;# 
   849  0DAB                     	;# 
   850  0DAC                     	;# 
   851  0DAC                     	;# 
   852  0DAD                     	;# 
   853  0DAD                     	;# 
   854  0DAE                     	;# 
   855  0DAF                     	;# 
   856  0DB0                     	;# 
   857  0DB1                     	;# 
   858  0DB1                     	;# 
   859  0DB2                     	;# 
   860  0DB3                     	;# 
   861  0DB3                     	;# 
   862  0DB4                     	;# 
   863  0DB5                     	;# 
   864  0DB5                     	;# 
   865  0DB6                     	;# 
   866  0DB7                     	;# 
   867  0DB7                     	;# 
   868  0DB8                     	;# 
   869  0DB9                     	;# 
   870  0DB9                     	;# 
   871  0DBA                     	;# 
   872  0DBB                     	;# 
   873  0DBC                     	;# 
   874  0DBC                     	;# 
   875  0DBD                     	;# 
   876  0DBD                     	;# 
   877  0DBE                     	;# 
   878  0DBF                     	;# 
   879  0DC0                     	;# 
   880  0FE4                     	;# 
   881  0FE5                     	;# 
   882  0FE6                     	;# 
   883  0FE7                     	;# 
   884  0FE8                     	;# 
   885  0FE8                     	;# 
   886  0FE9                     	;# 
   887  0FEA                     	;# 
   888  0FEA                     	;# 
   889  0FEB                     	;# 
   890  0FED                     	;# 
   891  0FEE                     	;# 
   892  0FEE                     	;# 
   893  0FEF                     	;# 
   894                           
   895                           	psect	stringtext1
   896  06D1                     __pstringtext1:
   897  06D1                     _PWM_FREQ:
   898  06D1  34FA               	retlw	250
   899  06D2  3400               	retlw	0
   900  06D3                     __end_of_PWM_FREQ:
   901  0095                     _OPTION_REGbits	set	149
   902  008C                     _TRISA	set	140
   903  0097                     _WDTCON	set	151
   904  0098                     _OSCTUNE	set	152
   905  0099                     _OSCCON	set	153
   906  011D                     _APFCON	set	285
   907  010C                     _LATA	set	268
   908  0116                     _BORCON	set	278
   909  018C                     _ANSELA	set	396
   910  020C                     _WPUA	set	524
   911  028C                     _ODCONA	set	652
   912  030C                     _SLRCONA	set	780
   913  038C                     _INLVLA	set	908
   914  0693                     _CWG1CON0bits	set	1683
   915  0695                     _CWG1CON2bits	set	1685
   916  0693                     _CWG1CON0	set	1683
   917  0692                     _CWG1DBF	set	1682
   918  0691                     _CWG1DBR	set	1681
   919  0695                     _CWG1CON2	set	1685
   920  0694                     _CWG1CON1	set	1684
   921  0D9D                     _PWM1INTFbits	set	3485
   922  0D9F                     _PWM1LDCONbits	set	3487
   923  0D9B                     _PWM1CONbits	set	3483
   924  0D9B                     _PWM1CON	set	3483
   925  0D99                     _PWM1TMRL	set	3481
   926  0D9A                     _PWM1TMRH	set	3482
   927  0D97                     _PWM1OFL	set	3479
   928  0D98                     _PWM1OFH	set	3480
   929  0D95                     _PWM1PRL	set	3477
   930  0D96                     _PWM1PRH	set	3478
   931  0D93                     _PWM1DCL	set	3475
   932  0D94                     _PWM1DCH	set	3476
   933  0D91                     _PWM1PHL	set	3473
   934  0D92                     _PWM1PHH	set	3474
   935  0DA0                     _PWM1OFCON	set	3488
   936  0D9F                     _PWM1LDCON	set	3487
   937  0D9E                     _PWM1CLKCON	set	3486
   938  0D9D                     _PWM1INTF	set	3485
   939  0D9C                     _PWM1INTE	set	3484
   940                           
   941                           	psect	cinit
   942  07FE                     start_initialization:	
   943                           ; #config settings
   944                           
   945  07FE                     __initialization:
   946  07FE                     end_of_initialization:	
   947                           ;End of C runtime variable initialization code
   948                           
   949  07FE                     __end_of__initialization:
   950  07FE  0020               	movlb	0
   951  07FF  2F4B               	ljmp	_main	;jump to C main() function
   952                           
   953                           	psect	cstackCOMMON
   954  0070                     __pcstackCOMMON:
   955  0070                     ?_PIN_MANAGER_Initialize:
   956  0070                     ??_PIN_MANAGER_Initialize:	
   957                           ; 1 bytes @ 0x0
   958                           
   959  0070                     ?_OSCILLATOR_Initialize:	
   960                           ; 1 bytes @ 0x0
   961                           
   962  0070                     ??_OSCILLATOR_Initialize:	
   963                           ; 1 bytes @ 0x0
   964                           
   965  0070                     ?_WDT_Initialize:	
   966                           ; 1 bytes @ 0x0
   967                           
   968  0070                     ??_WDT_Initialize:	
   969                           ; 1 bytes @ 0x0
   970                           
   971  0070                     ?_PWM1_Initialize:	
   972                           ; 1 bytes @ 0x0
   973                           
   974  0070                     ??_PWM1_Initialize:	
   975                           ; 1 bytes @ 0x0
   976                           
   977  0070                     ?_CWG_Initialize:	
   978                           ; 1 bytes @ 0x0
   979                           
   980  0070                     ??_CWG_Initialize:	
   981                           ; 1 bytes @ 0x0
   982                           
   983  0070                     ?_CWG_Enable:	
   984                           ; 1 bytes @ 0x0
   985                           
   986  0070                     ??_CWG_Enable:	
   987                           ; 1 bytes @ 0x0
   988                           
   989  0070                     ?_SYSTEM_Initialize:	
   990                           ; 1 bytes @ 0x0
   991                           
   992  0070                     ??_SYSTEM_Initialize:	
   993                           ; 1 bytes @ 0x0
   994                           
   995  0070                     ?_PWM1_Start:	
   996                           ; 1 bytes @ 0x0
   997                           
   998  0070                     ??_PWM1_Start:	
   999                           ; 1 bytes @ 0x0
  1000                           
  1001  0070                     ?_PWM1_PeriodSet:	
  1002                           ; 1 bytes @ 0x0
  1003                           
  1004  0070                     ?_main:	
  1005                           ; 1 bytes @ 0x0
  1006                           
  1007  0070                     ?___aldiv:	
  1008                           ; 1 bytes @ 0x0
  1009                           
  1010  0070                     PWM1_PeriodSet@periodCount:	
  1011                           ; 4 bytes @ 0x0
  1012                           
  1013  0070                     ___aldiv@divisor:	
  1014                           ; 2 bytes @ 0x0
  1015                           
  1016                           
  1017                           ; 4 bytes @ 0x0
  1018  0070                     	ds	2
  1019  0072                     ??_PWM1_PeriodSet:
  1020                           
  1021                           ; 1 bytes @ 0x2
  1022  0072                     	ds	2
  1023  0074                     ___aldiv@dividend:
  1024                           
  1025                           ; 4 bytes @ 0x4
  1026  0074                     	ds	4
  1027  0078                     ??___aldiv:
  1028                           
  1029                           ; 1 bytes @ 0x8
  1030  0078                     	ds	1
  1031  0079                     ??_Freq_to_Toggle_Period:
  1032  0079                     ??_main:	
  1033                           ; 1 bytes @ 0x9
  1034                           
  1035  0079                     main@period:	
  1036                           ; 1 bytes @ 0x9
  1037                           
  1038                           
  1039                           ; 2 bytes @ 0x9
  1040  0079                     	ds	2
  1041                           
  1042                           	psect	cstackBANK0
  1043  0020                     __pcstackBANK0:
  1044  0020                     ___aldiv@counter:
  1045                           
  1046                           ; 1 bytes @ 0x0
  1047  0020                     	ds	1
  1048  0021                     ___aldiv@sign:
  1049                           
  1050                           ; 1 bytes @ 0x1
  1051  0021                     	ds	1
  1052  0022                     ___aldiv@quotient:
  1053                           
  1054                           ; 4 bytes @ 0x2
  1055  0022                     	ds	4
  1056  0026                     ?_Freq_to_Toggle_Period:
  1057  0026                     Freq_to_Toggle_Period@freq:	
  1058                           ; 2 bytes @ 0x6
  1059                           
  1060                           
  1061                           ; 4 bytes @ 0x6
  1062  0026                     	ds	4
  1063                           
  1064                           	psect	maintext
  1065  074B                     __pmaintext:	
  1066 ;;
  1067 ;;Main: autosize = 0, tempsize = 0, incstack = 0, save=0
  1068 ;;
  1069 ;; *************** function _main *****************
  1070 ;; Defined at:
  1071 ;;		line 59 in file "main.c"
  1072 ;; Parameters:    Size  Location     Type
  1073 ;;		None
  1074 ;; Auto vars:     Size  Location     Type
  1075 ;;  period          2    9[COMMON] unsigned short 
  1076 ;; Return value:  Size  Location     Type
  1077 ;;                  1    wreg      void 
  1078 ;; Registers used:
  1079 ;;		wreg, status,2, status,0, pclath, cstack
  1080 ;; Tracked objects:
  1081 ;;		On entry : B1F/0
  1082 ;;		On exit  : 0/0
  1083 ;;		Unchanged: 0/0
  1084 ;; Data sizes:     COMMON   BANK0   BANK1   BANK2
  1085 ;;      Params:         0       0       0       0
  1086 ;;      Locals:         2       0       0       0
  1087 ;;      Temps:          0       0       0       0
  1088 ;;      Totals:         2       0       0       0
  1089 ;;Total ram usage:        2 bytes
  1090 ;; Hardware stack levels required when called: 2
  1091 ;; This function calls:
  1092 ;;		_CWG_Enable
  1093 ;;		_Freq_to_Toggle_Period
  1094 ;;		_PWM1_PeriodSet
  1095 ;;		_PWM1_Start
  1096 ;;		_SYSTEM_Initialize
  1097 ;; This function is called by:
  1098 ;;		Startup code after reset
  1099 ;; This function uses a non-reentrant model
  1100 ;;
  1101                           
  1102  074B                     _main:	
  1103                           ;psect for function _main
  1104                           
  1105  074B                     l991:	
  1106                           ;incstack = 0
  1107                           ; Regs used in _main: [wreg+status,2+status,0+pclath+cstack]
  1108                           
  1109                           
  1110                           ;main.c: 62:     SYSTEM_Initialize();
  1111  074B  3186  26F3  3187   	fcall	_SYSTEM_Initialize
  1112                           
  1113                           ;main.c: 79:     uint16_t period = Freq_to_Toggle_Period(PWM_FREQ);
  1114  074E  3000               	movlw	0
  1115  074F  0020               	movlb	0	; select bank0
  1116  0750  00A9               	movwf	Freq_to_Toggle_Period@freq+3
  1117  0751  3000               	movlw	0
  1118  0752  00A8               	movwf	Freq_to_Toggle_Period@freq+2
  1119  0753  3000               	movlw	0
  1120  0754  00A7               	movwf	Freq_to_Toggle_Period@freq+1
  1121  0755  30FA               	movlw	250
  1122  0756  00A6               	movwf	Freq_to_Toggle_Period@freq
  1123  0757  3187  2731  3187   	fcall	_Freq_to_Toggle_Period
  1124  075A  0020               	movlb	0	; select bank0
  1125  075B  0827               	movf	?_Freq_to_Toggle_Period+1,w
  1126  075C  00FA               	movwf	main@period+1
  1127  075D  0826               	movf	?_Freq_to_Toggle_Period,w
  1128  075E  00F9               	movwf	main@period
  1129                           
  1130                           ;main.c: 81:     PWM1_PeriodSet(period);
  1131  075F  087A               	movf	main@period+1,w
  1132  0760  00F1               	movwf	PWM1_PeriodSet@periodCount+1
  1133  0761  0879               	movf	main@period,w
  1134  0762  00F0               	movwf	PWM1_PeriodSet@periodCount
  1135  0763  3186  26DD  3187   	fcall	_PWM1_PeriodSet
  1136  0766                     l993:
  1137                           
  1138                           ;main.c: 84:     PWM1_Start();
  1139  0766  3186  26D6  3187   	fcall	_PWM1_Start
  1140  0769                     l995:
  1141                           
  1142                           ;main.c: 86:     CWG_Enable();
  1143  0769  3186  26D3  3187   	fcall	_CWG_Enable
  1144  076C                     l177:	
  1145                           ;main.c: 88:     while (1)
  1146                           
  1147  076C                     l178:	
  1148                           ;main.c: 89:     {;main.c: 92:     }
  1149                           
  1150  076C  2F6C               	goto	l177
  1151  076D  2801               	ljmp	start
  1152  076E                     __end_of_main:
  1153                           
  1154                           	psect	text1
  1155  06F3                     __ptext1:	
  1156 ;; *************** function _SYSTEM_Initialize *****************
  1157 ;; Defined at:
  1158 ;;		line 50 in file "mcc_generated_files/mcc.c"
  1159 ;; Parameters:    Size  Location     Type
  1160 ;;		None
  1161 ;; Auto vars:     Size  Location     Type
  1162 ;;		None
  1163 ;; Return value:  Size  Location     Type
  1164 ;;                  1    wreg      void 
  1165 ;; Registers used:
  1166 ;;		wreg, status,2, status,0, pclath, cstack
  1167 ;; Tracked objects:
  1168 ;;		On entry : 0/0
  1169 ;;		On exit  : 0/0
  1170 ;;		Unchanged: 0/0
  1171 ;; Data sizes:     COMMON   BANK0   BANK1   BANK2
  1172 ;;      Params:         0       0       0       0
  1173 ;;      Locals:         0       0       0       0
  1174 ;;      Temps:          0       0       0       0
  1175 ;;      Totals:         0       0       0       0
  1176 ;;Total ram usage:        0 bytes
  1177 ;; Hardware stack levels used: 1
  1178 ;; Hardware stack levels required when called: 1
  1179 ;; This function calls:
  1180 ;;		_CWG_Initialize
  1181 ;;		_OSCILLATOR_Initialize
  1182 ;;		_PIN_MANAGER_Initialize
  1183 ;;		_PWM1_Initialize
  1184 ;;		_WDT_Initialize
  1185 ;; This function is called by:
  1186 ;;		_main
  1187 ;; This function uses a non-reentrant model
  1188 ;;
  1189                           
  1190  06F3                     _SYSTEM_Initialize:	
  1191                           ;psect for function _SYSTEM_Initialize
  1192                           
  1193  06F3                     l977:	
  1194                           ;incstack = 0
  1195                           ; Regs used in _SYSTEM_Initialize: [wreg+status,2+status,0+pclath+cstack]
  1196                           
  1197                           
  1198                           ;mcc_generated_files/mcc.c: 53:     PIN_MANAGER_Initialize();
  1199  06F3  3187  2719  3186   	fcall	_PIN_MANAGER_Initialize
  1200                           
  1201                           ;mcc_generated_files/mcc.c: 54:     OSCILLATOR_Initialize();
  1202  06F6  3186  26E3  3186   	fcall	_OSCILLATOR_Initialize
  1203                           
  1204                           ;mcc_generated_files/mcc.c: 55:     WDT_Initialize();
  1205  06F9  3186  26D9  3186   	fcall	_WDT_Initialize
  1206                           
  1207                           ;mcc_generated_files/mcc.c: 56:     PWM1_Initialize();
  1208  06FC  3187  2703  3186   	fcall	_PWM1_Initialize
  1209                           
  1210                           ;mcc_generated_files/mcc.c: 57:     CWG_Initialize();
  1211  06FF  3186  26EA  3186   	fcall	_CWG_Initialize
  1212  0702                     l21:
  1213  0702  0008               	return
  1214  0703                     __end_of_SYSTEM_Initialize:
  1215                           
  1216                           	psect	text2
  1217  06D9                     __ptext2:	
  1218 ;; *************** function _WDT_Initialize *****************
  1219 ;; Defined at:
  1220 ;;		line 70 in file "mcc_generated_files/mcc.c"
  1221 ;; Parameters:    Size  Location     Type
  1222 ;;		None
  1223 ;; Auto vars:     Size  Location     Type
  1224 ;;		None
  1225 ;; Return value:  Size  Location     Type
  1226 ;;                  1    wreg      void 
  1227 ;; Registers used:
  1228 ;;		wreg
  1229 ;; Tracked objects:
  1230 ;;		On entry : 0/0
  1231 ;;		On exit  : 0/0
  1232 ;;		Unchanged: 0/0
  1233 ;; Data sizes:     COMMON   BANK0   BANK1   BANK2
  1234 ;;      Params:         0       0       0       0
  1235 ;;      Locals:         0       0       0       0
  1236 ;;      Temps:          0       0       0       0
  1237 ;;      Totals:         0       0       0       0
  1238 ;;Total ram usage:        0 bytes
  1239 ;; Hardware stack levels used: 1
  1240 ;; This function calls:
  1241 ;;		Nothing
  1242 ;; This function is called by:
  1243 ;;		_SYSTEM_Initialize
  1244 ;; This function uses a non-reentrant model
  1245 ;;
  1246                           
  1247  06D9                     _WDT_Initialize:	
  1248                           ;psect for function _WDT_Initialize
  1249                           
  1250  06D9                     l901:	
  1251                           ;incstack = 0
  1252                           ; Regs used in _WDT_Initialize: [wreg]
  1253                           
  1254                           
  1255                           ;mcc_generated_files/mcc.c: 73:     WDTCON = 0x16;
  1256  06D9  3016               	movlw	22
  1257  06DA  0021               	movlb	1	; select bank1
  1258  06DB  0097               	movwf	23	;volatile
  1259  06DC                     l27:
  1260  06DC  0008               	return
  1261  06DD                     __end_of_WDT_Initialize:
  1262                           
  1263                           	psect	text3
  1264  0703                     __ptext3:	
  1265 ;; *************** function _PWM1_Initialize *****************
  1266 ;; Defined at:
  1267 ;;		line 58 in file "mcc_generated_files/pwm1.c"
  1268 ;; Parameters:    Size  Location     Type
  1269 ;;		None
  1270 ;; Auto vars:     Size  Location     Type
  1271 ;;		None
  1272 ;; Return value:  Size  Location     Type
  1273 ;;                  1    wreg      void 
  1274 ;; Registers used:
  1275 ;;		wreg, status,2
  1276 ;; Tracked objects:
  1277 ;;		On entry : 0/0
  1278 ;;		On exit  : 0/0
  1279 ;;		Unchanged: 0/0
  1280 ;; Data sizes:     COMMON   BANK0   BANK1   BANK2
  1281 ;;      Params:         0       0       0       0
  1282 ;;      Locals:         0       0       0       0
  1283 ;;      Temps:          0       0       0       0
  1284 ;;      Totals:         0       0       0       0
  1285 ;;Total ram usage:        0 bytes
  1286 ;; Hardware stack levels used: 1
  1287 ;; This function calls:
  1288 ;;		Nothing
  1289 ;; This function is called by:
  1290 ;;		_SYSTEM_Initialize
  1291 ;; This function uses a non-reentrant model
  1292 ;;
  1293                           
  1294  0703                     _PWM1_Initialize:	
  1295                           ;psect for function _PWM1_Initialize
  1296                           
  1297  0703                     l903:	
  1298                           ;incstack = 0
  1299                           ; Regs used in _PWM1_Initialize: [wreg+status,2]
  1300                           
  1301                           
  1302                           ;mcc_generated_files/pwm1.c: 63:     PWM1INTE = 0x00;
  1303  0703  003B               	movlb	27	; select bank27
  1304  0704  019C               	clrf	28	;volatile
  1305                           
  1306                           ;mcc_generated_files/pwm1.c: 66:     PWM1INTF = 0x00;
  1307  0705  019D               	clrf	29	;volatile
  1308  0706                     l905:
  1309                           
  1310                           ;mcc_generated_files/pwm1.c: 69:     PWM1CLKCON = 0x71;
  1311  0706  3071               	movlw	113
  1312  0707  009E               	movwf	30	;volatile
  1313  0708                     l907:
  1314                           
  1315                           ;mcc_generated_files/pwm1.c: 72:     PWM1LDCON = 0x00;
  1316  0708  019F               	clrf	31	;volatile
  1317  0709                     l909:
  1318                           
  1319                           ;mcc_generated_files/pwm1.c: 75:     PWM1OFCON = 0x00;
  1320  0709  01A0               	clrf	32	;volatile
  1321  070A                     l911:
  1322                           
  1323                           ;mcc_generated_files/pwm1.c: 78:     PWM1PHH = 0x00;
  1324  070A  0192               	clrf	18	;volatile
  1325  070B                     l913:
  1326                           
  1327                           ;mcc_generated_files/pwm1.c: 81:     PWM1PHL = 0x00;
  1328  070B  0191               	clrf	17	;volatile
  1329  070C                     l915:
  1330                           
  1331                           ;mcc_generated_files/pwm1.c: 84:     PWM1DCH = 0x00;
  1332  070C  0194               	clrf	20	;volatile
  1333  070D                     l917:
  1334                           
  1335                           ;mcc_generated_files/pwm1.c: 87:     PWM1DCL = 0x00;
  1336  070D  0193               	clrf	19	;volatile
  1337  070E                     l919:
  1338                           
  1339                           ;mcc_generated_files/pwm1.c: 90:     PWM1PRH = 0x00;
  1340  070E  0196               	clrf	22	;volatile
  1341                           
  1342                           ;mcc_generated_files/pwm1.c: 93:     PWM1PRL = 0xFA;
  1343  070F  30FA               	movlw	250
  1344  0710  0095               	movwf	21	;volatile
  1345  0711                     l921:
  1346                           
  1347                           ;mcc_generated_files/pwm1.c: 96:     PWM1OFH = 0x00;
  1348  0711  0198               	clrf	24	;volatile
  1349  0712                     l923:
  1350                           
  1351                           ;mcc_generated_files/pwm1.c: 99:     PWM1OFL = 0x7D;
  1352  0712  307D               	movlw	125
  1353  0713  0097               	movwf	23	;volatile
  1354                           
  1355                           ;mcc_generated_files/pwm1.c: 102:     PWM1TMRH = 0x00;
  1356  0714  019A               	clrf	26	;volatile
  1357                           
  1358                           ;mcc_generated_files/pwm1.c: 105:     PWM1TMRL = 0x00;
  1359  0715  0199               	clrf	25	;volatile
  1360  0716                     l925:
  1361                           
  1362                           ;mcc_generated_files/pwm1.c: 108:     PWM1CON = 0x08;
  1363  0716  3008               	movlw	8
  1364  0717  009B               	movwf	27	;volatile
  1365  0718                     l92:
  1366  0718  0008               	return
  1367  0719                     __end_of_PWM1_Initialize:
  1368                           
  1369                           	psect	text4
  1370  0719                     __ptext4:	
  1371 ;; *************** function _PIN_MANAGER_Initialize *****************
  1372 ;; Defined at:
  1373 ;;		line 55 in file "mcc_generated_files/pin_manager.c"
  1374 ;; Parameters:    Size  Location     Type
  1375 ;;		None
  1376 ;; Auto vars:     Size  Location     Type
  1377 ;;		None
  1378 ;; Return value:  Size  Location     Type
  1379 ;;                  1    wreg      void 
  1380 ;; Registers used:
  1381 ;;		wreg, status,2
  1382 ;; Tracked objects:
  1383 ;;		On entry : 0/0
  1384 ;;		On exit  : 0/0
  1385 ;;		Unchanged: 0/0
  1386 ;; Data sizes:     COMMON   BANK0   BANK1   BANK2
  1387 ;;      Params:         0       0       0       0
  1388 ;;      Locals:         0       0       0       0
  1389 ;;      Temps:          0       0       0       0
  1390 ;;      Totals:         0       0       0       0
  1391 ;;Total ram usage:        0 bytes
  1392 ;; Hardware stack levels used: 1
  1393 ;; This function calls:
  1394 ;;		Nothing
  1395 ;; This function is called by:
  1396 ;;		_SYSTEM_Initialize
  1397 ;; This function uses a non-reentrant model
  1398 ;;
  1399                           
  1400  0719                     _PIN_MANAGER_Initialize:	
  1401                           ;psect for function _PIN_MANAGER_Initialize
  1402                           
  1403  0719                     l881:	
  1404                           ;incstack = 0
  1405                           ; Regs used in _PIN_MANAGER_Initialize: [wreg+status,2]
  1406                           
  1407                           
  1408                           ;mcc_generated_files/pin_manager.c: 60:     LATA = 0x00;
  1409  0719  0022               	movlb	2	; select bank2
  1410  071A  018C               	clrf	12	;volatile
  1411  071B                     l883:
  1412                           
  1413                           ;mcc_generated_files/pin_manager.c: 65:     TRISA = 0x0F;
  1414  071B  300F               	movlw	15
  1415  071C  0021               	movlb	1	; select bank1
  1416  071D  008C               	movwf	12	;volatile
  1417  071E                     l885:
  1418                           
  1419                           ;mcc_generated_files/pin_manager.c: 70:     ANSELA = 0x07;
  1420  071E  3007               	movlw	7
  1421  071F  0023               	movlb	3	; select bank3
  1422  0720  008C               	movwf	12	;volatile
  1423                           
  1424                           ;mcc_generated_files/pin_manager.c: 75:     WPUA = 0x00;
  1425  0721  0024               	movlb	4	; select bank4
  1426  0722  018C               	clrf	12	;volatile
  1427  0723                     l887:
  1428                           
  1429                           ;mcc_generated_files/pin_manager.c: 76:     OPTION_REGbits.nWPUEN = 1;
  1430  0723  0021               	movlb	1	; select bank1
  1431  0724  1795               	bsf	21,7	;volatile
  1432                           
  1433                           ;mcc_generated_files/pin_manager.c: 81:     ODCONA = 0x00;
  1434  0725  0025               	movlb	5	; select bank5
  1435  0726  018C               	clrf	12	;volatile
  1436  0727                     l889:
  1437                           
  1438                           ;mcc_generated_files/pin_manager.c: 86:     SLRCONA = 0x37;
  1439  0727  3037               	movlw	55
  1440  0728  0026               	movlb	6	; select bank6
  1441  0729  008C               	movwf	12	;volatile
  1442  072A                     l891:
  1443                           
  1444                           ;mcc_generated_files/pin_manager.c: 91:     INLVLA = 0x3F;
  1445  072A  303F               	movlw	63
  1446  072B  0027               	movlb	7	; select bank7
  1447  072C  008C               	movwf	12	;volatile
  1448  072D                     l893:
  1449                           
  1450                           ;mcc_generated_files/pin_manager.c: 96:     APFCON = 0x60;
  1451  072D  3060               	movlw	96
  1452  072E  0022               	movlb	2	; select bank2
  1453  072F  009D               	movwf	29	;volatile
  1454  0730                     l48:
  1455  0730  0008               	return
  1456  0731                     __end_of_PIN_MANAGER_Initialize:
  1457                           
  1458                           	psect	text5
  1459  06E3                     __ptext5:	
  1460 ;; *************** function _OSCILLATOR_Initialize *****************
  1461 ;; Defined at:
  1462 ;;		line 60 in file "mcc_generated_files/mcc.c"
  1463 ;; Parameters:    Size  Location     Type
  1464 ;;		None
  1465 ;; Auto vars:     Size  Location     Type
  1466 ;;		None
  1467 ;; Return value:  Size  Location     Type
  1468 ;;                  1    wreg      void 
  1469 ;; Registers used:
  1470 ;;		wreg, status,2
  1471 ;; Tracked objects:
  1472 ;;		On entry : 0/0
  1473 ;;		On exit  : 0/0
  1474 ;;		Unchanged: 0/0
  1475 ;; Data sizes:     COMMON   BANK0   BANK1   BANK2
  1476 ;;      Params:         0       0       0       0
  1477 ;;      Locals:         0       0       0       0
  1478 ;;      Temps:          0       0       0       0
  1479 ;;      Totals:         0       0       0       0
  1480 ;;Total ram usage:        0 bytes
  1481 ;; Hardware stack levels used: 1
  1482 ;; This function calls:
  1483 ;;		Nothing
  1484 ;; This function is called by:
  1485 ;;		_SYSTEM_Initialize
  1486 ;; This function uses a non-reentrant model
  1487 ;;
  1488                           
  1489  06E3                     _OSCILLATOR_Initialize:	
  1490                           ;psect for function _OSCILLATOR_Initialize
  1491                           
  1492  06E3                     l895:	
  1493                           ;incstack = 0
  1494                           ; Regs used in _OSCILLATOR_Initialize: [wreg+status,2]
  1495                           
  1496                           
  1497                           ;mcc_generated_files/mcc.c: 63:     OSCCON = 0x38;
  1498  06E3  3038               	movlw	56
  1499  06E4  0021               	movlb	1	; select bank1
  1500  06E5  0099               	movwf	25	;volatile
  1501  06E6                     l897:
  1502                           
  1503                           ;mcc_generated_files/mcc.c: 65:     OSCTUNE = 0x00;
  1504  06E6  0198               	clrf	24	;volatile
  1505  06E7                     l899:
  1506                           
  1507                           ;mcc_generated_files/mcc.c: 67:     BORCON = 0x00;
  1508  06E7  0022               	movlb	2	; select bank2
  1509  06E8  0196               	clrf	22	;volatile
  1510  06E9                     l24:
  1511  06E9  0008               	return
  1512  06EA                     __end_of_OSCILLATOR_Initialize:
  1513                           
  1514                           	psect	text6
  1515  06EA                     __ptext6:	
  1516 ;; *************** function _CWG_Initialize *****************
  1517 ;; Defined at:
  1518 ;;		line 58 in file "mcc_generated_files/cwg.c"
  1519 ;; Parameters:    Size  Location     Type
  1520 ;;		None
  1521 ;; Auto vars:     Size  Location     Type
  1522 ;;		None
  1523 ;; Return value:  Size  Location     Type
  1524 ;;                  1    wreg      void 
  1525 ;; Registers used:
  1526 ;;		wreg, status,2
  1527 ;; Tracked objects:
  1528 ;;		On entry : 0/0
  1529 ;;		On exit  : 0/0
  1530 ;;		Unchanged: 0/0
  1531 ;; Data sizes:     COMMON   BANK0   BANK1   BANK2
  1532 ;;      Params:         0       0       0       0
  1533 ;;      Locals:         0       0       0       0
  1534 ;;      Temps:          0       0       0       0
  1535 ;;      Totals:         0       0       0       0
  1536 ;;Total ram usage:        0 bytes
  1537 ;; Hardware stack levels used: 1
  1538 ;; This function calls:
  1539 ;;		Nothing
  1540 ;; This function is called by:
  1541 ;;		_SYSTEM_Initialize
  1542 ;; This function uses a non-reentrant model
  1543 ;;
  1544                           
  1545  06EA                     _CWG_Initialize:	
  1546                           ;psect for function _CWG_Initialize
  1547                           
  1548  06EA                     l927:	
  1549                           ;incstack = 0
  1550                           ; Regs used in _CWG_Initialize: [wreg+status,2]
  1551                           
  1552                           
  1553                           ;mcc_generated_files/cwg.c: 62:     CWG1CON1 = 0x02;
  1554  06EA  3002               	movlw	2
  1555  06EB  002D               	movlb	13	; select bank13
  1556  06EC  0094               	movwf	20	;volatile
  1557  06ED                     l929:
  1558                           
  1559                           ;mcc_generated_files/cwg.c: 65:     CWG1CON2 = 0x00;
  1560  06ED  0195               	clrf	21	;volatile
  1561  06EE                     l931:
  1562                           
  1563                           ;mcc_generated_files/cwg.c: 68:     CWG1DBR = 0x00;
  1564  06EE  0191               	clrf	17	;volatile
  1565  06EF                     l933:
  1566                           
  1567                           ;mcc_generated_files/cwg.c: 71:     CWG1DBF = 0x00;
  1568  06EF  0192               	clrf	18	;volatile
  1569  06F0                     l935:
  1570                           
  1571                           ;mcc_generated_files/cwg.c: 74:     CWG1CON0 = 0x61;
  1572  06F0  3061               	movlw	97
  1573  06F1  0093               	movwf	19	;volatile
  1574  06F2                     l146:
  1575  06F2  0008               	return
  1576  06F3                     __end_of_CWG_Initialize:
  1577                           
  1578                           	psect	text7
  1579  06D6                     __ptext7:	
  1580 ;; *************** function _PWM1_Start *****************
  1581 ;; Defined at:
  1582 ;;		line 113 in file "mcc_generated_files/pwm1.c"
  1583 ;; Parameters:    Size  Location     Type
  1584 ;;		None
  1585 ;; Auto vars:     Size  Location     Type
  1586 ;;		None
  1587 ;; Return value:  Size  Location     Type
  1588 ;;                  1    wreg      void 
  1589 ;; Registers used:
  1590 ;;		None
  1591 ;; Tracked objects:
  1592 ;;		On entry : 0/0
  1593 ;;		On exit  : 0/0
  1594 ;;		Unchanged: 0/0
  1595 ;; Data sizes:     COMMON   BANK0   BANK1   BANK2
  1596 ;;      Params:         0       0       0       0
  1597 ;;      Locals:         0       0       0       0
  1598 ;;      Temps:          0       0       0       0
  1599 ;;      Totals:         0       0       0       0
  1600 ;;Total ram usage:        0 bytes
  1601 ;; Hardware stack levels used: 1
  1602 ;; This function calls:
  1603 ;;		Nothing
  1604 ;; This function is called by:
  1605 ;;		_main
  1606 ;; This function uses a non-reentrant model
  1607 ;;
  1608                           
  1609  06D6                     _PWM1_Start:	
  1610                           ;psect for function _PWM1_Start
  1611                           
  1612  06D6                     l979:	
  1613                           ;incstack = 0
  1614                           ; Regs used in _PWM1_Start: []
  1615                           
  1616                           
  1617                           ;mcc_generated_files/pwm1.c: 115:     PWM1CONbits.EN = 1;
  1618  06D6  003B               	movlb	27	; select bank27
  1619  06D7  179B               	bsf	27,7	;volatile
  1620  06D8                     l95:
  1621  06D8  0008               	return
  1622  06D9                     __end_of_PWM1_Start:
  1623                           
  1624                           	psect	text8
  1625  06DD                     __ptext8:	
  1626 ;; *************** function _PWM1_PeriodSet *****************
  1627 ;; Defined at:
  1628 ;;		line 145 in file "mcc_generated_files/pwm1.c"
  1629 ;; Parameters:    Size  Location     Type
  1630 ;;  periodCount     2    0[COMMON] unsigned short 
  1631 ;; Auto vars:     Size  Location     Type
  1632 ;;		None
  1633 ;; Return value:  Size  Location     Type
  1634 ;;                  1    wreg      void 
  1635 ;; Registers used:
  1636 ;;		wreg, status,2
  1637 ;; Tracked objects:
  1638 ;;		On entry : 0/0
  1639 ;;		On exit  : 0/0
  1640 ;;		Unchanged: 0/0
  1641 ;; Data sizes:     COMMON   BANK0   BANK1   BANK2
  1642 ;;      Params:         2       0       0       0
  1643 ;;      Locals:         0       0       0       0
  1644 ;;      Temps:          0       0       0       0
  1645 ;;      Totals:         2       0       0       0
  1646 ;;Total ram usage:        2 bytes
  1647 ;; Hardware stack levels used: 1
  1648 ;; This function calls:
  1649 ;;		Nothing
  1650 ;; This function is called by:
  1651 ;;		_main
  1652 ;; This function uses a non-reentrant model
  1653 ;;
  1654                           
  1655  06DD                     _PWM1_PeriodSet:	
  1656                           ;psect for function _PWM1_PeriodSet
  1657                           
  1658  06DD                     l981:	
  1659                           ;incstack = 0
  1660                           ; Regs used in _PWM1_PeriodSet: [wreg+status,2]
  1661                           
  1662                           
  1663                           ;mcc_generated_files/pwm1.c: 145: void PWM1_PeriodSet(uint16_t periodCount);mcc_generate
      +                          d_files/pwm1.c: 146: {;mcc_generated_files/pwm1.c: 147:     PWM1PRH = (periodCount>>8);
  1664  06DD  0871               	movf	PWM1_PeriodSet@periodCount+1,w
  1665  06DE  003B               	movlb	27	; select bank27
  1666  06DF  0096               	movwf	22	;volatile
  1667  06E0                     l983:
  1668                           
  1669                           ;mcc_generated_files/pwm1.c: 148:     PWM1PRL = (periodCount);
  1670  06E0  0870               	movf	PWM1_PeriodSet@periodCount,w
  1671  06E1  0095               	movwf	21	;volatile
  1672  06E2                     l113:
  1673  06E2  0008               	return
  1674  06E3                     __end_of_PWM1_PeriodSet:
  1675                           
  1676                           	psect	text9
  1677  0731                     __ptext9:	
  1678 ;; *************** function _Freq_to_Toggle_Period *****************
  1679 ;; Defined at:
  1680 ;;		line 95 in file "main.c"
  1681 ;; Parameters:    Size  Location     Type
  1682 ;;  freq            4    6[BANK0 ] long 
  1683 ;; Auto vars:     Size  Location     Type
  1684 ;;		None
  1685 ;; Return value:  Size  Location     Type
  1686 ;;                  2    6[BANK0 ] unsigned short 
  1687 ;; Registers used:
  1688 ;;		wreg, status,2, status,0, pclath, cstack
  1689 ;; Tracked objects:
  1690 ;;		On entry : 0/0
  1691 ;;		On exit  : 0/0
  1692 ;;		Unchanged: 0/0
  1693 ;; Data sizes:     COMMON   BANK0   BANK1   BANK2
  1694 ;;      Params:         0       4       0       0
  1695 ;;      Locals:         0       0       0       0
  1696 ;;      Temps:          0       0       0       0
  1697 ;;      Totals:         0       4       0       0
  1698 ;;Total ram usage:        4 bytes
  1699 ;; Hardware stack levels used: 1
  1700 ;; Hardware stack levels required when called: 1
  1701 ;; This function calls:
  1702 ;;		___aldiv
  1703 ;; This function is called by:
  1704 ;;		_main
  1705 ;; This function uses a non-reentrant model
  1706 ;;
  1707                           
  1708  0731                     _Freq_to_Toggle_Period:	
  1709                           ;psect for function _Freq_to_Toggle_Period
  1710                           
  1711  0731                     l985:	
  1712                           ;incstack = 0
  1713                           ; Regs used in _Freq_to_Toggle_Period: [wreg+status,2+status,0+pclath+cstack]
  1714                           
  1715                           
  1716                           ;main.c: 95: uint16_t Freq_to_Toggle_Period(long freq);main.c: 96: {;main.c: 97:     ret
      +                          urn ((16000000L) / (128)) / ( freq * 2 );
  1717  0731  0020               	movlb	0	; select bank0
  1718  0732  3526               	lslf	Freq_to_Toggle_Period@freq,w
  1719  0733  00F0               	movwf	___aldiv@divisor
  1720  0734  0D27               	rlf	Freq_to_Toggle_Period@freq+1,w
  1721  0735  00F1               	movwf	___aldiv@divisor+1
  1722  0736  0D28               	rlf	Freq_to_Toggle_Period@freq+2,w
  1723  0737  00F2               	movwf	___aldiv@divisor+2
  1724  0738  0D29               	rlf	Freq_to_Toggle_Period@freq+3,w
  1725  0739  00F3               	movwf	___aldiv@divisor+3
  1726  073A  3000               	movlw	0
  1727  073B  00F7               	movwf	___aldiv@dividend+3
  1728  073C  3001               	movlw	1
  1729  073D  00F6               	movwf	___aldiv@dividend+2
  1730  073E  30E8               	movlw	232
  1731  073F  00F5               	movwf	___aldiv@dividend+1
  1732  0740  3048               	movlw	72
  1733  0741  00F4               	movwf	___aldiv@dividend
  1734  0742  3187  276E  3187   	fcall	___aldiv
  1735  0745  0871               	movf	?___aldiv+1,w
  1736  0746  0020               	movlb	0	; select bank0
  1737  0747  00A7               	movwf	?_Freq_to_Toggle_Period+1
  1738  0748  0870               	movf	?___aldiv,w
  1739  0749  00A6               	movwf	?_Freq_to_Toggle_Period
  1740  074A                     l183:
  1741  074A  0008               	return
  1742  074B                     __end_of_Freq_to_Toggle_Period:
  1743                           
  1744                           	psect	text10
  1745  076E                     __ptext10:	
  1746 ;; *************** function ___aldiv *****************
  1747 ;; Defined at:
  1748 ;;		line 5 in file "C:\Program Files\Microchip\xc8\v2.35\pic\sources\c99\common\aldiv.c"
  1749 ;; Parameters:    Size  Location     Type
  1750 ;;  divisor         4    0[COMMON] long 
  1751 ;;  dividend        4    4[COMMON] long 
  1752 ;; Auto vars:     Size  Location     Type
  1753 ;;  quotient        4    2[BANK0 ] long 
  1754 ;;  sign            1    1[BANK0 ] unsigned char 
  1755 ;;  counter         1    0[BANK0 ] unsigned char 
  1756 ;; Return value:  Size  Location     Type
  1757 ;;                  4    0[COMMON] long 
  1758 ;; Registers used:
  1759 ;;		wreg, status,2, status,0
  1760 ;; Tracked objects:
  1761 ;;		On entry : 0/0
  1762 ;;		On exit  : 0/0
  1763 ;;		Unchanged: 0/0
  1764 ;; Data sizes:     COMMON   BANK0   BANK1   BANK2
  1765 ;;      Params:         8       0       0       0
  1766 ;;      Locals:         0       6       0       0
  1767 ;;      Temps:          1       0       0       0
  1768 ;;      Totals:         9       6       0       0
  1769 ;;Total ram usage:       15 bytes
  1770 ;; Hardware stack levels used: 1
  1771 ;; This function calls:
  1772 ;;		Nothing
  1773 ;; This function is called by:
  1774 ;;		_Freq_to_Toggle_Period
  1775 ;; This function uses a non-reentrant model
  1776 ;;
  1777                           
  1778  076E                     ___aldiv:	
  1779                           ;psect for function ___aldiv
  1780                           
  1781  076E                     l937:	
  1782                           ;incstack = 0
  1783                           ; Regs used in ___aldiv: [wreg+status,2+status,0]
  1784                           
  1785  076E  0020               	movlb	0	; select bank0
  1786  076F  01A1               	clrf	___aldiv@sign
  1787  0770                     l939:
  1788  0770  1FF3               	btfss	___aldiv@divisor+3,7
  1789  0771  2F73               	goto	u111
  1790  0772  2F74               	goto	u110
  1791  0773                     u111:
  1792  0773  2F81               	goto	l322
  1793  0774                     u110:
  1794  0774                     l941:
  1795  0774  09F0               	comf	___aldiv@divisor,f
  1796  0775  09F1               	comf	___aldiv@divisor+1,f
  1797  0776  09F2               	comf	___aldiv@divisor+2,f
  1798  0777  09F3               	comf	___aldiv@divisor+3,f
  1799  0778  0AF0               	incf	___aldiv@divisor,f
  1800  0779  1903               	skipnz
  1801  077A  0AF1               	incf	___aldiv@divisor+1,f
  1802  077B  1903               	skipnz
  1803  077C  0AF2               	incf	___aldiv@divisor+2,f
  1804  077D  1903               	skipnz
  1805  077E  0AF3               	incf	___aldiv@divisor+3,f
  1806  077F  01A1               	clrf	___aldiv@sign
  1807  0780  0AA1               	incf	___aldiv@sign,f
  1808  0781                     l322:
  1809  0781  1FF7               	btfss	___aldiv@dividend+3,7
  1810  0782  2F84               	goto	u121
  1811  0783  2F85               	goto	u120
  1812  0784                     u121:
  1813  0784  2F94               	goto	l947
  1814  0785                     u120:
  1815  0785                     l943:
  1816  0785  09F4               	comf	___aldiv@dividend,f
  1817  0786  09F5               	comf	___aldiv@dividend+1,f
  1818  0787  09F6               	comf	___aldiv@dividend+2,f
  1819  0788  09F7               	comf	___aldiv@dividend+3,f
  1820  0789  0AF4               	incf	___aldiv@dividend,f
  1821  078A  1903               	skipnz
  1822  078B  0AF5               	incf	___aldiv@dividend+1,f
  1823  078C  1903               	skipnz
  1824  078D  0AF6               	incf	___aldiv@dividend+2,f
  1825  078E  1903               	skipnz
  1826  078F  0AF7               	incf	___aldiv@dividend+3,f
  1827  0790                     l945:
  1828  0790  3001               	movlw	1
  1829  0791  00F8               	movwf	??___aldiv
  1830  0792  0878               	movf	??___aldiv,w
  1831  0793  06A1               	xorwf	___aldiv@sign,f
  1832  0794                     l947:
  1833  0794  3000               	movlw	0
  1834  0795  00A5               	movwf	___aldiv@quotient+3
  1835  0796  3000               	movlw	0
  1836  0797  00A4               	movwf	___aldiv@quotient+2
  1837  0798  3000               	movlw	0
  1838  0799  00A3               	movwf	___aldiv@quotient+1
  1839  079A  3000               	movlw	0
  1840  079B  00A2               	movwf	___aldiv@quotient
  1841  079C                     l949:
  1842  079C  0873               	movf	___aldiv@divisor+3,w
  1843  079D  0472               	iorwf	___aldiv@divisor+2,w
  1844  079E  0471               	iorwf	___aldiv@divisor+1,w
  1845  079F  0470               	iorwf	___aldiv@divisor,w
  1846  07A0  1903               	skipnz
  1847  07A1  2FA3               	goto	u131
  1848  07A2  2FA4               	goto	u130
  1849  07A3                     u131:
  1850  07A3  2FE5               	goto	l969
  1851  07A4                     u130:
  1852  07A4                     l951:
  1853  07A4  01A0               	clrf	___aldiv@counter
  1854  07A5  0AA0               	incf	___aldiv@counter,f
  1855  07A6  2FB2               	goto	l955
  1856  07A7                     l953:
  1857  07A7  3001               	movlw	1
  1858  07A8                     u145:
  1859  07A8  35F0               	lslf	___aldiv@divisor,f
  1860  07A9  0DF1               	rlf	___aldiv@divisor+1,f
  1861  07AA  0DF2               	rlf	___aldiv@divisor+2,f
  1862  07AB  0DF3               	rlf	___aldiv@divisor+3,f
  1863  07AC  0B89               	decfsz	9,f
  1864  07AD  2FA8               	goto	u145
  1865  07AE  3001               	movlw	1
  1866  07AF  00F8               	movwf	??___aldiv
  1867  07B0  0878               	movf	??___aldiv,w
  1868  07B1  07A0               	addwf	___aldiv@counter,f
  1869  07B2                     l955:
  1870  07B2  1FF3               	btfss	___aldiv@divisor+3,7
  1871  07B3  2FB5               	goto	u151
  1872  07B4  2FB6               	goto	u150
  1873  07B5                     u151:
  1874  07B5  2FA7               	goto	l953
  1875  07B6                     u150:
  1876  07B6                     l957:
  1877  07B6  3001               	movlw	1
  1878  07B7                     u165:
  1879  07B7  35A2               	lslf	___aldiv@quotient,f
  1880  07B8  0DA3               	rlf	___aldiv@quotient+1,f
  1881  07B9  0DA4               	rlf	___aldiv@quotient+2,f
  1882  07BA  0DA5               	rlf	___aldiv@quotient+3,f
  1883  07BB  0B89               	decfsz	9,f
  1884  07BC  2FB7               	goto	u165
  1885  07BD                     l959:
  1886  07BD  0873               	movf	___aldiv@divisor+3,w
  1887  07BE  0277               	subwf	___aldiv@dividend+3,w
  1888  07BF  1D03               	skipz
  1889  07C0  2FCB               	goto	u175
  1890  07C1  0872               	movf	___aldiv@divisor+2,w
  1891  07C2  0276               	subwf	___aldiv@dividend+2,w
  1892  07C3  1D03               	skipz
  1893  07C4  2FCB               	goto	u175
  1894  07C5  0871               	movf	___aldiv@divisor+1,w
  1895  07C6  0275               	subwf	___aldiv@dividend+1,w
  1896  07C7  1D03               	skipz
  1897  07C8  2FCB               	goto	u175
  1898  07C9  0870               	movf	___aldiv@divisor,w
  1899  07CA  0274               	subwf	___aldiv@dividend,w
  1900  07CB                     u175:
  1901  07CB  1C03               	skipc
  1902  07CC  2FCE               	goto	u171
  1903  07CD  2FCF               	goto	u170
  1904  07CE                     u171:
  1905  07CE  2FD8               	goto	l965
  1906  07CF                     u170:
  1907  07CF                     l961:
  1908  07CF  0870               	movf	___aldiv@divisor,w
  1909  07D0  02F4               	subwf	___aldiv@dividend,f
  1910  07D1  0871               	movf	___aldiv@divisor+1,w
  1911  07D2  3BF5               	subwfb	___aldiv@dividend+1,f
  1912  07D3  0872               	movf	___aldiv@divisor+2,w
  1913  07D4  3BF6               	subwfb	___aldiv@dividend+2,f
  1914  07D5  0873               	movf	___aldiv@divisor+3,w
  1915  07D6  3BF7               	subwfb	___aldiv@dividend+3,f
  1916  07D7                     l963:
  1917  07D7  1422               	bsf	___aldiv@quotient,0
  1918  07D8                     l965:
  1919  07D8  3001               	movlw	1
  1920  07D9                     u185:
  1921  07D9  36F3               	lsrf	___aldiv@divisor+3,f
  1922  07DA  0CF2               	rrf	___aldiv@divisor+2,f
  1923  07DB  0CF1               	rrf	___aldiv@divisor+1,f
  1924  07DC  0CF0               	rrf	___aldiv@divisor,f
  1925  07DD  0B89               	decfsz	9,f
  1926  07DE  2FD9               	goto	u185
  1927  07DF                     l967:
  1928  07DF  3001               	movlw	1
  1929  07E0  02A0               	subwf	___aldiv@counter,f
  1930  07E1  1D03               	btfss	3,2
  1931  07E2  2FE4               	goto	u191
  1932  07E3  2FE5               	goto	u190
  1933  07E4                     u191:
  1934  07E4  2FB6               	goto	l957
  1935  07E5                     u190:
  1936  07E5                     l969:
  1937  07E5  0821               	movf	___aldiv@sign,w
  1938  07E6  1903               	btfsc	3,2
  1939  07E7  2FE9               	goto	u201
  1940  07E8  2FEA               	goto	u200
  1941  07E9                     u201:
  1942  07E9  2FF5               	goto	l973
  1943  07EA                     u200:
  1944  07EA                     l971:
  1945  07EA  09A2               	comf	___aldiv@quotient,f
  1946  07EB  09A3               	comf	___aldiv@quotient+1,f
  1947  07EC  09A4               	comf	___aldiv@quotient+2,f
  1948  07ED  09A5               	comf	___aldiv@quotient+3,f
  1949  07EE  0AA2               	incf	___aldiv@quotient,f
  1950  07EF  1903               	skipnz
  1951  07F0  0AA3               	incf	___aldiv@quotient+1,f
  1952  07F1  1903               	skipnz
  1953  07F2  0AA4               	incf	___aldiv@quotient+2,f
  1954  07F3  1903               	skipnz
  1955  07F4  0AA5               	incf	___aldiv@quotient+3,f
  1956  07F5                     l973:
  1957  07F5  0825               	movf	___aldiv@quotient+3,w
  1958  07F6  00F3               	movwf	?___aldiv+3
  1959  07F7  0824               	movf	___aldiv@quotient+2,w
  1960  07F8  00F2               	movwf	?___aldiv+2
  1961  07F9  0823               	movf	___aldiv@quotient+1,w
  1962  07FA  00F1               	movwf	?___aldiv+1
  1963  07FB  0822               	movf	___aldiv@quotient,w
  1964  07FC  00F0               	movwf	?___aldiv
  1965  07FD                     l332:
  1966  07FD  0008               	return
  1967  07FE                     __end_of___aldiv:
  1968                           
  1969                           	psect	text11
  1970  06D3                     __ptext11:	
  1971 ;; *************** function _CWG_Enable *****************
  1972 ;; Defined at:
  1973 ;;		line 100 in file "main.c"
  1974 ;; Parameters:    Size  Location     Type
  1975 ;;		None
  1976 ;; Auto vars:     Size  Location     Type
  1977 ;;		None
  1978 ;; Return value:  Size  Location     Type
  1979 ;;                  1    wreg      void 
  1980 ;; Registers used:
  1981 ;;		None
  1982 ;; Tracked objects:
  1983 ;;		On entry : 0/0
  1984 ;;		On exit  : 0/0
  1985 ;;		Unchanged: 0/0
  1986 ;; Data sizes:     COMMON   BANK0   BANK1   BANK2
  1987 ;;      Params:         0       0       0       0
  1988 ;;      Locals:         0       0       0       0
  1989 ;;      Temps:          0       0       0       0
  1990 ;;      Totals:         0       0       0       0
  1991 ;;Total ram usage:        0 bytes
  1992 ;; Hardware stack levels used: 1
  1993 ;; This function calls:
  1994 ;;		Nothing
  1995 ;; This function is called by:
  1996 ;;		_main
  1997 ;; This function uses a non-reentrant model
  1998 ;;
  1999                           
  2000  06D3                     _CWG_Enable:	
  2001                           ;psect for function _CWG_Enable
  2002                           
  2003  06D3                     l989:	
  2004                           ;incstack = 0
  2005                           ; Regs used in _CWG_Enable: []
  2006                           
  2007                           
  2008                           ;main.c: 102:     CWG1CON0bits.G1EN = 1;
  2009  06D3  002D               	movlb	13	; select bank13
  2010  06D4  1793               	bsf	19,7	;volatile
  2011  06D5                     l186:
  2012  06D5  0008               	return
  2013  06D6                     __end_of_CWG_Enable:
  2014  007E                     btemp	set	126	;btemp
  2015  007E                     wtemp0	set	126
  2016                           
  2017                           	psect	idloc
  2018                           
  2019                           ;Config register IDLOC0 @ 0x8000
  2020                           ;	unspecified, using default values
  2021  8000                     	org	32768
  2022  8000  3FFF               	dw	16383
  2023                           
  2024                           ;Config register IDLOC1 @ 0x8001
  2025                           ;	unspecified, using default values
  2026  8001                     	org	32769
  2027  8001  3FFF               	dw	16383
  2028                           
  2029                           ;Config register IDLOC2 @ 0x8002
  2030                           ;	unspecified, using default values
  2031  8002                     	org	32770
  2032  8002  3FFF               	dw	16383
  2033                           
  2034                           ;Config register IDLOC3 @ 0x8003
  2035                           ;	unspecified, using default values
  2036  8003                     	org	32771
  2037  8003  3FFF               	dw	16383
  2038                           
  2039                           	psect	config
  2040                           
  2041                           ;Config register CONFIG1 @ 0x8007
  2042                           ;	
  2043                           ;	FOSC = INTOSC, INTOSC oscillator; I/O function on CLKIN pin
  2044                           ;	Watchdog Timer Enable
  2045                           ;	WDTE = OFF, WDT disabled
  2046                           ;	Power-up Timer Enable
  2047                           ;	PWRTE = OFF, PWRT disabled
  2048                           ;	MCLR Pin Function Select
  2049                           ;	MCLRE = ON, MCLR/VPP pin function is MCLR
  2050                           ;	Flash Program Memory Code Protection
  2051                           ;	CP = OFF, Program memory code protection is disabled
  2052                           ;	Brown-out Reset Enable
  2053                           ;	BOREN = ON, Brown-out Reset enabled
  2054                           ;	Clock Out Enable
  2055                           ;	CLKOUTEN = OFF, CLKOUT function is disabled. I/O or oscillator function on the CLKOUT 
      +                          pin
  2056  8007                     	org	32775
  2057  8007  3FE4               	dw	16356
  2058                           
  2059                           ;Config register CONFIG2 @ 0x8008
  2060                           ;	Flash Memory Self-Write Protection
  2061                           ;	WRT = OFF, Write protection off
  2062                           ;	PLL Enable
  2063                           ;	PLLEN = OFF, 4x PLL disabled
  2064                           ;	Stack Overflow/Underflow Reset Enable
  2065                           ;	STVREN = ON, Stack Overflow or Underflow will cause a Reset
  2066                           ;	Brown-out Reset Voltage Selection
  2067                           ;	BORV = LO, Brown-out Reset Voltage (Vbor), low trip point selected.
  2068                           ;	Low Power Brown-out Reset enable bit
  2069                           ;	LPBOREN = OFF, LPBOR is disabled
  2070                           ;	Low-Voltage Programming Enable
  2071                           ;	LVP = ON, Low-voltage programming enabled
  2072  8008                     	org	32776
  2073  8008  3EFF               	dw	16127

Data Sizes:
    Strings     0
    Constant    2
    Data        0
    BSS         0
    Persistent  32
    Stack       0

Auto Spaces:
    Space          Size  Autos    Used
    COMMON           14     11      11
    BANK0            80     10      10
    BANK1            80      0       0
    BANK2            80      0       0

Pointer List with Targets:

    None.

Critical Paths under _main in COMMON

    _Freq_to_Toggle_Period->___aldiv

Critical Paths under _main in BANK0

    _main->_Freq_to_Toggle_Period
    _Freq_to_Toggle_Period->___aldiv

Critical Paths under _main in BANK1

    None.

Critical Paths under _main in BANK2

    None.

Call Graph Tables:

 ---------------------------------------------------------------------------------
 (Depth) Function   	        Calls       Base Space   Used Autos Params    Refs
 ---------------------------------------------------------------------------------
 (0) _main                                                 2     2      0     693
                                              9 COMMON     2     2      0
                         _CWG_Enable
              _Freq_to_Toggle_Period
                     _PWM1_PeriodSet
                         _PWM1_Start
                  _SYSTEM_Initialize
 ---------------------------------------------------------------------------------
 (1) _SYSTEM_Initialize                                    0     0      0       0
                     _CWG_Initialize
              _OSCILLATOR_Initialize
             _PIN_MANAGER_Initialize
                    _PWM1_Initialize
                     _WDT_Initialize
 ---------------------------------------------------------------------------------
 (2) _WDT_Initialize                                       0     0      0       0
 ---------------------------------------------------------------------------------
 (2) _PWM1_Initialize                                      0     0      0       0
 ---------------------------------------------------------------------------------
 (2) _PIN_MANAGER_Initialize                               0     0      0       0
 ---------------------------------------------------------------------------------
 (2) _OSCILLATOR_Initialize                                0     0      0       0
 ---------------------------------------------------------------------------------
 (2) _CWG_Initialize                                       0     0      0       0
 ---------------------------------------------------------------------------------
 (1) _PWM1_Start                                           0     0      0       0
 ---------------------------------------------------------------------------------
 (1) _PWM1_PeriodSet                                       2     0      2     120
                                              0 COMMON     2     0      2
 ---------------------------------------------------------------------------------
 (1) _Freq_to_Toggle_Period                                4     0      4     550
                                              6 BANK0      4     0      4
                            ___aldiv
 ---------------------------------------------------------------------------------
 (2) ___aldiv                                             15     7      8     452
                                              0 COMMON     9     1      8
                                              0 BANK0      6     6      0
 ---------------------------------------------------------------------------------
 (1) _CWG_Enable                                           0     0      0       0
 ---------------------------------------------------------------------------------
 Estimated maximum stack depth 2
 ---------------------------------------------------------------------------------

 Call Graph Graphs:

 _main (ROOT)
   _CWG_Enable
   _Freq_to_Toggle_Period
     ___aldiv
   _PWM1_PeriodSet
   _PWM1_Start
   _SYSTEM_Initialize
     _CWG_Initialize
     _OSCILLATOR_Initialize
     _PIN_MANAGER_Initialize
     _PWM1_Initialize
     _WDT_Initialize

 Address spaces:
Name               Size   Autos  Total    Cost      Usage
BIGRAM              F0      0       0       0        0.0%
NULL                 0      0       0       0        0.0%
CODE                 0      0       0       0        0.0%
BITCOMMON            E      0       0       1        0.0%
BITSFR0              0      0       0       1        0.0%
SFR0                 0      0       0       1        0.0%
COMMON               E      B       B       2       78.6%
BITSFR1              0      0       0       2        0.0%
SFR1                 0      0       0       2        0.0%
BITSFR2              0      0       0       3        0.0%
SFR2                 0      0       0       3        0.0%
STACK                0      0       0       3        0.0%
BITSFR3              0      0       0       4        0.0%
SFR3                 0      0       0       4        0.0%
ABS                  0      0       0       4        0.0%
BITBANK0            50      0       0       5        0.0%
BITSFR4              0      0       0       5        0.0%
SFR4                 0      0       0       5        0.0%
BANK0               50      A       A       6       12.5%
BITSFR5              0      0       0       6        0.0%
SFR5                 0      0       0       6        0.0%
BITBANK1            50      0       0       7        0.0%
BITSFR6              0      0       0       7        0.0%
SFR6                 0      0       0       7        0.0%
BANK1               50      0       0       8        0.0%
BITSFR7              0      0       0       8        0.0%
SFR7                 0      0       0       8        0.0%
BITBANK2            50      0       0       9        0.0%
BITSFR8              0      0       0       9        0.0%
SFR8                 0      0       0       9        0.0%
BANK2               50      0       0      10        0.0%
BITSFR9              0      0       0      10        0.0%
SFR9                 0      0       0      10        0.0%
BITSFR10             0      0       0      11        0.0%
SFR10                0      0       0      11        0.0%
DATA                 0      0       0      11        0.0%
BITSFR11             0      0       0      12        0.0%
SFR11                0      0       0      12        0.0%
BITSFR12             0      0       0      13        0.0%
SFR12                0      0       0      13        0.0%
BITSFR13             0      0       0      14        0.0%
SFR13                0      0       0      14        0.0%
BITSFR14             0      0       0      15        0.0%
SFR14                0      0       0      15        0.0%
BITSFR15             0      0       0      16        0.0%
SFR15                0      0       0      16        0.0%
BITSFR16             0      0       0      17        0.0%
SFR16                0      0       0      17        0.0%
BITSFR17             0      0       0      18        0.0%
SFR17                0      0       0      18        0.0%
BITSFR18             0      0       0      19        0.0%
SFR18                0      0       0      19        0.0%
BITSFR19             0      0       0      20        0.0%
SFR19                0      0       0      20        0.0%
BITSFR20             0      0       0      21        0.0%
SFR20                0      0       0      21        0.0%
BITSFR21             0      0       0      22        0.0%
SFR21                0      0       0      22        0.0%
BITSFR22             0      0       0      23        0.0%
SFR22                0      0       0      23        0.0%
BITSFR23             0      0       0      24        0.0%
SFR23                0      0       0      24        0.0%
BITSFR24             0      0       0      25        0.0%
SFR24                0      0       0      25        0.0%
BITSFR25             0      0       0      26        0.0%
SFR25                0      0       0      26        0.0%
BITSFR26             0      0       0      27        0.0%
SFR26                0      0       0      27        0.0%
BITSFR27             0      0       0      28        0.0%
SFR27                0      0       0      28        0.0%
BITSFR28             0      0       0      29        0.0%
SFR28                0      0       0      29        0.0%
BITSFR29             0      0       0      30        0.0%
SFR29                0      0       0      30        0.0%
BITSFR30             0      0       0      31        0.0%
SFR30                0      0       0      31        0.0%
BITSFR31             0      0       0      32        0.0%
SFR31                0      0       0      32        0.0%


Microchip Technology PIC Macro Assembler V2.35 build 20211206165544 
Symbol Table                                                                                   Sun Jan 23 19:49:16 2022

                            l21 0702                              l24 06E9                              l27 06DC  
                            l48 0730                              l92 0718                              l95 06D8  
                   ?_CWG_Enable 0070                             l113 06E2                             l322 0781  
                           l146 06F2                             l332 07FD                             l183 074A  
                           l177 076C                             l186 06D5                             l178 076C  
                           l901 06D9                             l911 070A                             l903 0703  
                           l921 0711                             l913 070B                             l905 0706  
                           l931 06EE                             l923 0712                             l915 070C  
                           l907 0708                             l941 0774                             l933 06EF  
                           l925 0716                             l917 070D                             l909 0709  
                           l951 07A4                             l943 0785                             l935 06F0  
                           l927 06EA                             l919 070E                             l961 07CF  
                           l953 07A7                             l945 0790                             l937 076E  
                           l929 06ED                             l881 0719                             l971 07EA  
                           l963 07D7                             l955 07B2                             l947 0794  
                           l939 0770                             l891 072A                             l883 071B  
                           l973 07F5                             l965 07D8                             l957 07B6  
                           l949 079C                             l981 06DD                             l893 072D  
                           l885 071E                             l967 07DF                             l959 07BD  
                           l983 06E0                             l895 06E3                             l887 0723  
                           l991 074B                             l969 07E5                             l985 0731  
                           l897 06E6                             l889 0727                             l977 06F3  
                           l993 0766                             l979 06D6                             l899 06E7  
                           l995 0769                             l989 06D3                             u110 0774  
                           u111 0773                             u200 07EA                             u120 0785  
                           u201 07E9                             u121 0784                             u130 07A4  
                           u131 07A3                             u150 07B6                             u151 07B5  
                           u145 07A8                             u170 07CF                             u171 07CE  
                           u165 07B7                             u190 07E5                             u191 07E4  
                           u175 07CB                             u185 07D9                             wreg 0009  
       __end_of_PWM1_Initialize 0719                            _LATA 010C                            _WPUA 020C  
                          _main 074B                            btemp 007E                            start 0001  
 __end_of_OSCILLATOR_Initialize 06EA                 __end_of___aldiv 07FE                           ?_main 0070  
        ?_Freq_to_Toggle_Period 0026                           _TRISA 008C                     ?_PWM1_Start 0070  
                _WDT_Initialize 06D9                __end_of_PWM_FREQ 06D3                           status 0003  
                         wtemp0 007E                 __initialization 07FE                    __end_of_main 076E  
                        ??_main 0079          __end_of_WDT_Initialize 06DD                          _APFCON 011D  
                        _ANSELA 018C                          _BORCON 0116                ?_PWM1_Initialize 0070  
                        _ODCONA 028C                          _INLVLA 038C                          _OSCCON 0099  
                        _WDTCON 0097                       ??___aldiv 0078                 ?_WDT_Initialize 0070  
                _CWG_Initialize 06EA               _SYSTEM_Initialize 06F3         __end_of__initialization 07FE  
            ?_SYSTEM_Initialize 0070                  __pcstackCOMMON 0070             ??_SYSTEM_Initialize 0070  
                  ??_CWG_Enable 0070                    _CWG1CON0bits 0693                    _CWG1CON2bits 0695  
                _OPTION_REGbits 0095       PWM1_PeriodSet@periodCount 0070          __end_of_CWG_Initialize 06F3  
     __end_of_SYSTEM_Initialize 0703              __end_of_CWG_Enable 06D6                      __pmaintext 074B  
       ??_Freq_to_Toggle_Period 0079                         _CWG1DBF 0692                         _CWG1DBR 0691  
                       _PWM1DCH 0D94                    ??_PWM1_Start 0070                         _PWM1DCL 0D93  
                       _OSCTUNE 0098                         _PWM1CON 0D9B                         _PWM1OFH 0D98  
                       _PWM1OFL 0D97                         _PWM1PHH 0D92                         _PWM1PHL 0D91  
                       _PWM1PRH 0D96                         _PWM1PRL 0D95                 ?_CWG_Initialize 0070  
                       _SLRCONA 030C                         ___aldiv 076E              __end_of_PWM1_Start 06D9  
                       __ptext1 06F3                         __ptext2 06D9                         __ptext3 0703  
                       __ptext4 0719                         __ptext5 06E3                         __ptext6 06EA  
                       __ptext7 06D6                         __ptext8 06DD                         __ptext9 0731  
         _OSCILLATOR_Initialize 06E3                ___aldiv@dividend 0074        ??_PIN_MANAGER_Initialize 0070  
          end_of_initialization 07FE                ___aldiv@quotient 0022                       _PWM1LDCON 0D9F  
                     _PWM1OFCON 0DA0                  _PWM1_PeriodSet 06DD                ??_WDT_Initialize 0070  
                    main@period 0079          __end_of_PWM1_PeriodSet 06E3          ?_OSCILLATOR_Initialize 0070  
           start_initialization 07FE                   _PWM1LDCONbits 0D9F       Freq_to_Toggle_Period@freq 0026  
               ?_PWM1_PeriodSet 0070   __end_of_Freq_to_Toggle_Period 074B                ??_CWG_Initialize 0070  
                     ___latbits 0000                   __pcstackBANK0 0020          _PIN_MANAGER_Initialize 0719  
                      ?___aldiv 0070               ??_PWM1_Initialize 0070                        _CWG1CON0 0693  
                      _CWG1CON1 0694                        _CWG1CON2 0695                 ___aldiv@divisor 0070  
               ___aldiv@counter 0020                        _PWM1INTE 0D9C                        _PWM1INTF 0D9D  
                      _PWM1TMRH 0D9A                        _PWM1TMRL 0D99                        _PWM_FREQ 06D1  
                  _PWM1INTFbits 0D9D         ??_OSCILLATOR_Initialize 0070                        __ptext10 076E  
                      __ptext11 06D3                ??_PWM1_PeriodSet 0072                      _CWG_Enable 06D3  
                   _PWM1CONbits 0D9B         ?_PIN_MANAGER_Initialize 0070                 _PWM1_Initialize 0703  
                    _PWM1CLKCON 0D9E                   __pstringtext1 06D1           _Freq_to_Toggle_Period 0731  
                  ___aldiv@sign 0021                      _PWM1_Start 06D6  __end_of_PIN_MANAGER_Initialize 0731  
