

Microchip MPLAB XC8 Assembler V2.32 build 20210201212658 
                                                                                               Sun Jun 20 11:55:56 2021

Microchip MPLAB XC8 C Compiler v2.32 (Free license) build 20210201212658 Og1 
     1                           	processor	12F1572
     2                           	pagewidth 120
     3                           	opt	flic
     4                           	psect	stringtext1,global,class=STRCODE,delta=2,noexec
     5                           	psect	cinit,global,class=CODE,merge=1,delta=2
     6                           	psect	cstackCOMMON,global,class=COMMON,space=1,delta=1,noexec
     7                           	psect	cstackBANK0,global,class=BANK0,space=1,delta=1,noexec
     8                           	psect	maintext,global,class=CODE,merge=1,split=1,delta=2
     9                           	psect	text1,local,class=CODE,merge=1,delta=2
    10                           	psect	text2,local,class=CODE,merge=1,delta=2
    11                           	psect	text3,local,class=CODE,merge=1,delta=2
    12                           	psect	text4,local,class=CODE,merge=1,delta=2
    13                           	psect	text5,local,class=CODE,merge=1,delta=2
    14                           	psect	text6,local,class=CODE,merge=1,delta=2
    15                           	psect	text7,local,class=CODE,merge=1,delta=2
    16                           	psect	text8,local,class=CODE,merge=1,delta=2
    17                           	psect	text9,local,class=CODE,merge=1,delta=2
    18                           	psect	text10,local,class=CODE,merge=1,delta=2
    19                           	psect	text11,local,class=CODE,merge=1,delta=2
    20                           	psect	text12,local,class=CODE,merge=1,delta=2,group=1
    21                           	psect	config,global,abs,ovrld,class=CONFIG,space=4,delta=2,noexec
    22                           	dabs	1,0x7E,2
    23  0000                     
    24                           ; Version 2.20
    25                           ; Generated 12/02/2020 GMT
    26                           ; 
    27                           ; Copyright © 2020, Microchip Technology Inc. and its subsidiaries ("Microchip")
    28                           ; All rights reserved.
    29                           ; 
    30                           ; This software is developed by Microchip Technology Inc. and its subsidiaries ("Microch
      +                          ip").
    31                           ; 
    32                           ; Redistribution and use in source and binary forms, with or without modification, are
    33                           ; permitted provided that the following conditions are met:
    34                           ; 
    35                           ;     1. Redistributions of source code must retain the above copyright notice, this lis
      +                          t of
    36                           ;        conditions and the following disclaimer.
    37                           ; 
    38                           ;     2. Redistributions in binary form must reproduce the above copyright notice, this 
      +                          list
    39                           ;        of conditions and the following disclaimer in the documentation and/or other
    40                           ;        materials provided with the distribution.
    41                           ; 
    42                           ;     3. Microchip's name may not be used to endorse or promote products derived from th
      +                          is
    43                           ;        software without specific prior written permission.
    44                           ; 
    45                           ; THIS SOFTWARE IS PROVIDED BY MICROCHIP "AS IS" AND ANY EXPRESS OR IMPLIED WARRANTIES,
    46                           ; INCLUDING, BUT NOT LIMITED TO, THE IMPLIED WARRANTIES OF MERCHANTABILITY AND FITNESS F
      +                          OR
    47                           ; PURPOSE ARE DISCLAIMED.  IN NO EVENT SHALL MICROCHIP BE LIABLE FOR ANY DIRECT, INDIREC
      +                          T,
    48                           ; INCIDENTAL, SPECIAL, EXEMPLARY, OR CONSEQUENTIAL DAMAGES (INCLUDING BUT NOT LIMITED TO
    49                           ; PROCUREMENT OF SUBSTITUTE GOODS OR SERVICES; LOSS OF USE, DATA OR PROFITS; OR BUSINESS
    50                           ; INTERRUPTION) HOWSOEVER CAUSED AND ON ANY THEORY OF LIABILITY, WHETHER IN CONTRACT, ST
      +                          RICT
    51                           ; LIABILITY, OR TORT (INCLUDING NEGLIGENCE OR OTHERWISE) ARISING IN ANY WAY OUT OF THE U
      +                          SE OF
    52                           ; THIS SOFTWARE, EVEN IF ADVISED OF THE POSSIBILITY OF SUCH DAMAGE.
    53                           ; 
    54                           ; 
    55                           ; Code-generator required, PIC12F1572 Definitions
    56                           ; 
    57                           ; SFR Addresses
    58  0000                     	;# 
    59  0001                     	;# 
    60  0002                     	;# 
    61  0003                     	;# 
    62  0004                     	;# 
    63  0005                     	;# 
    64  0006                     	;# 
    65  0007                     	;# 
    66  0008                     	;# 
    67  0009                     	;# 
    68  000A                     	;# 
    69  000B                     	;# 
    70  000C                     	;# 
    71  0011                     	;# 
    72  0012                     	;# 
    73  0013                     	;# 
    74  0015                     	;# 
    75  0016                     	;# 
    76  0016                     	;# 
    77  0017                     	;# 
    78  0018                     	;# 
    79  0019                     	;# 
    80  001A                     	;# 
    81  001B                     	;# 
    82  001C                     	;# 
    83  008C                     	;# 
    84  0091                     	;# 
    85  0092                     	;# 
    86  0093                     	;# 
    87  0095                     	;# 
    88  0096                     	;# 
    89  0097                     	;# 
    90  0098                     	;# 
    91  0099                     	;# 
    92  009A                     	;# 
    93  009B                     	;# 
    94  009B                     	;# 
    95  009C                     	;# 
    96  009D                     	;# 
    97  009E                     	;# 
    98  009F                     	;# 
    99  010C                     	;# 
   100  0111                     	;# 
   101  0112                     	;# 
   102  0115                     	;# 
   103  0116                     	;# 
   104  0117                     	;# 
   105  0118                     	;# 
   106  0119                     	;# 
   107  011D                     	;# 
   108  011D                     	;# 
   109  018C                     	;# 
   110  0191                     	;# 
   111  0191                     	;# 
   112  0192                     	;# 
   113  0193                     	;# 
   114  0193                     	;# 
   115  0194                     	;# 
   116  0195                     	;# 
   117  0196                     	;# 
   118  0197                     	;# 
   119  0199                     	;# 
   120  019A                     	;# 
   121  019B                     	;# 
   122  019B                     	;# 
   123  019C                     	;# 
   124  019D                     	;# 
   125  019E                     	;# 
   126  019F                     	;# 
   127  020C                     	;# 
   128  028C                     	;# 
   129  030C                     	;# 
   130  038C                     	;# 
   131  0391                     	;# 
   132  0392                     	;# 
   133  0393                     	;# 
   134  0691                     	;# 
   135  0692                     	;# 
   136  0693                     	;# 
   137  0694                     	;# 
   138  0695                     	;# 
   139  0D8E                     	;# 
   140  0D8F                     	;# 
   141  0D90                     	;# 
   142  0D91                     	;# 
   143  0D91                     	;# 
   144  0D92                     	;# 
   145  0D93                     	;# 
   146  0D93                     	;# 
   147  0D94                     	;# 
   148  0D95                     	;# 
   149  0D95                     	;# 
   150  0D96                     	;# 
   151  0D97                     	;# 
   152  0D97                     	;# 
   153  0D98                     	;# 
   154  0D99                     	;# 
   155  0D99                     	;# 
   156  0D9A                     	;# 
   157  0D9B                     	;# 
   158  0D9C                     	;# 
   159  0D9C                     	;# 
   160  0D9D                     	;# 
   161  0D9D                     	;# 
   162  0D9E                     	;# 
   163  0D9F                     	;# 
   164  0DA0                     	;# 
   165  0DA1                     	;# 
   166  0DA1                     	;# 
   167  0DA2                     	;# 
   168  0DA3                     	;# 
   169  0DA3                     	;# 
   170  0DA4                     	;# 
   171  0DA5                     	;# 
   172  0DA5                     	;# 
   173  0DA6                     	;# 
   174  0DA7                     	;# 
   175  0DA7                     	;# 
   176  0DA8                     	;# 
   177  0DA9                     	;# 
   178  0DA9                     	;# 
   179  0DAA                     	;# 
   180  0DAB                     	;# 
   181  0DAC                     	;# 
   182  0DAC                     	;# 
   183  0DAD                     	;# 
   184  0DAD                     	;# 
   185  0DAE                     	;# 
   186  0DAF                     	;# 
   187  0DB0                     	;# 
   188  0DB1                     	;# 
   189  0DB1                     	;# 
   190  0DB2                     	;# 
   191  0DB3                     	;# 
   192  0DB3                     	;# 
   193  0DB4                     	;# 
   194  0DB5                     	;# 
   195  0DB5                     	;# 
   196  0DB6                     	;# 
   197  0DB7                     	;# 
   198  0DB7                     	;# 
   199  0DB8                     	;# 
   200  0DB9                     	;# 
   201  0DB9                     	;# 
   202  0DBA                     	;# 
   203  0DBB                     	;# 
   204  0DBC                     	;# 
   205  0DBC                     	;# 
   206  0DBD                     	;# 
   207  0DBD                     	;# 
   208  0DBE                     	;# 
   209  0DBF                     	;# 
   210  0DC0                     	;# 
   211  0FE4                     	;# 
   212  0FE5                     	;# 
   213  0FE6                     	;# 
   214  0FE7                     	;# 
   215  0FE8                     	;# 
   216  0FE8                     	;# 
   217  0FE9                     	;# 
   218  0FEA                     	;# 
   219  0FEA                     	;# 
   220  0FEB                     	;# 
   221  0FED                     	;# 
   222  0FEE                     	;# 
   223  0FEE                     	;# 
   224  0FEF                     	;# 
   225  0000                     	;# 
   226  0001                     	;# 
   227  0002                     	;# 
   228  0003                     	;# 
   229  0004                     	;# 
   230  0005                     	;# 
   231  0006                     	;# 
   232  0007                     	;# 
   233  0008                     	;# 
   234  0009                     	;# 
   235  000A                     	;# 
   236  000B                     	;# 
   237  000C                     	;# 
   238  0011                     	;# 
   239  0012                     	;# 
   240  0013                     	;# 
   241  0015                     	;# 
   242  0016                     	;# 
   243  0016                     	;# 
   244  0017                     	;# 
   245  0018                     	;# 
   246  0019                     	;# 
   247  001A                     	;# 
   248  001B                     	;# 
   249  001C                     	;# 
   250  008C                     	;# 
   251  0091                     	;# 
   252  0092                     	;# 
   253  0093                     	;# 
   254  0095                     	;# 
   255  0096                     	;# 
   256  0097                     	;# 
   257  0098                     	;# 
   258  0099                     	;# 
   259  009A                     	;# 
   260  009B                     	;# 
   261  009B                     	;# 
   262  009C                     	;# 
   263  009D                     	;# 
   264  009E                     	;# 
   265  009F                     	;# 
   266  010C                     	;# 
   267  0111                     	;# 
   268  0112                     	;# 
   269  0115                     	;# 
   270  0116                     	;# 
   271  0117                     	;# 
   272  0118                     	;# 
   273  0119                     	;# 
   274  011D                     	;# 
   275  011D                     	;# 
   276  018C                     	;# 
   277  0191                     	;# 
   278  0191                     	;# 
   279  0192                     	;# 
   280  0193                     	;# 
   281  0193                     	;# 
   282  0194                     	;# 
   283  0195                     	;# 
   284  0196                     	;# 
   285  0197                     	;# 
   286  0199                     	;# 
   287  019A                     	;# 
   288  019B                     	;# 
   289  019B                     	;# 
   290  019C                     	;# 
   291  019D                     	;# 
   292  019E                     	;# 
   293  019F                     	;# 
   294  020C                     	;# 
   295  028C                     	;# 
   296  030C                     	;# 
   297  038C                     	;# 
   298  0391                     	;# 
   299  0392                     	;# 
   300  0393                     	;# 
   301  0691                     	;# 
   302  0692                     	;# 
   303  0693                     	;# 
   304  0694                     	;# 
   305  0695                     	;# 
   306  0D8E                     	;# 
   307  0D8F                     	;# 
   308  0D90                     	;# 
   309  0D91                     	;# 
   310  0D91                     	;# 
   311  0D92                     	;# 
   312  0D93                     	;# 
   313  0D93                     	;# 
   314  0D94                     	;# 
   315  0D95                     	;# 
   316  0D95                     	;# 
   317  0D96                     	;# 
   318  0D97                     	;# 
   319  0D97                     	;# 
   320  0D98                     	;# 
   321  0D99                     	;# 
   322  0D99                     	;# 
   323  0D9A                     	;# 
   324  0D9B                     	;# 
   325  0D9C                     	;# 
   326  0D9C                     	;# 
   327  0D9D                     	;# 
   328  0D9D                     	;# 
   329  0D9E                     	;# 
   330  0D9F                     	;# 
   331  0DA0                     	;# 
   332  0DA1                     	;# 
   333  0DA1                     	;# 
   334  0DA2                     	;# 
   335  0DA3                     	;# 
   336  0DA3                     	;# 
   337  0DA4                     	;# 
   338  0DA5                     	;# 
   339  0DA5                     	;# 
   340  0DA6                     	;# 
   341  0DA7                     	;# 
   342  0DA7                     	;# 
   343  0DA8                     	;# 
   344  0DA9                     	;# 
   345  0DA9                     	;# 
   346  0DAA                     	;# 
   347  0DAB                     	;# 
   348  0DAC                     	;# 
   349  0DAC                     	;# 
   350  0DAD                     	;# 
   351  0DAD                     	;# 
   352  0DAE                     	;# 
   353  0DAF                     	;# 
   354  0DB0                     	;# 
   355  0DB1                     	;# 
   356  0DB1                     	;# 
   357  0DB2                     	;# 
   358  0DB3                     	;# 
   359  0DB3                     	;# 
   360  0DB4                     	;# 
   361  0DB5                     	;# 
   362  0DB5                     	;# 
   363  0DB6                     	;# 
   364  0DB7                     	;# 
   365  0DB7                     	;# 
   366  0DB8                     	;# 
   367  0DB9                     	;# 
   368  0DB9                     	;# 
   369  0DBA                     	;# 
   370  0DBB                     	;# 
   371  0DBC                     	;# 
   372  0DBC                     	;# 
   373  0DBD                     	;# 
   374  0DBD                     	;# 
   375  0DBE                     	;# 
   376  0DBF                     	;# 
   377  0DC0                     	;# 
   378  0FE4                     	;# 
   379  0FE5                     	;# 
   380  0FE6                     	;# 
   381  0FE7                     	;# 
   382  0FE8                     	;# 
   383  0FE8                     	;# 
   384  0FE9                     	;# 
   385  0FEA                     	;# 
   386  0FEA                     	;# 
   387  0FEB                     	;# 
   388  0FED                     	;# 
   389  0FEE                     	;# 
   390  0FEE                     	;# 
   391  0FEF                     	;# 
   392  0000                     	;# 
   393  0001                     	;# 
   394  0002                     	;# 
   395  0003                     	;# 
   396  0004                     	;# 
   397  0005                     	;# 
   398  0006                     	;# 
   399  0007                     	;# 
   400  0008                     	;# 
   401  0009                     	;# 
   402  000A                     	;# 
   403  000B                     	;# 
   404  000C                     	;# 
   405  0011                     	;# 
   406  0012                     	;# 
   407  0013                     	;# 
   408  0015                     	;# 
   409  0016                     	;# 
   410  0016                     	;# 
   411  0017                     	;# 
   412  0018                     	;# 
   413  0019                     	;# 
   414  001A                     	;# 
   415  001B                     	;# 
   416  001C                     	;# 
   417  008C                     	;# 
   418  0091                     	;# 
   419  0092                     	;# 
   420  0093                     	;# 
   421  0095                     	;# 
   422  0096                     	;# 
   423  0097                     	;# 
   424  0098                     	;# 
   425  0099                     	;# 
   426  009A                     	;# 
   427  009B                     	;# 
   428  009B                     	;# 
   429  009C                     	;# 
   430  009D                     	;# 
   431  009E                     	;# 
   432  009F                     	;# 
   433  010C                     	;# 
   434  0111                     	;# 
   435  0112                     	;# 
   436  0115                     	;# 
   437  0116                     	;# 
   438  0117                     	;# 
   439  0118                     	;# 
   440  0119                     	;# 
   441  011D                     	;# 
   442  011D                     	;# 
   443  018C                     	;# 
   444  0191                     	;# 
   445  0191                     	;# 
   446  0192                     	;# 
   447  0193                     	;# 
   448  0193                     	;# 
   449  0194                     	;# 
   450  0195                     	;# 
   451  0196                     	;# 
   452  0197                     	;# 
   453  0199                     	;# 
   454  019A                     	;# 
   455  019B                     	;# 
   456  019B                     	;# 
   457  019C                     	;# 
   458  019D                     	;# 
   459  019E                     	;# 
   460  019F                     	;# 
   461  020C                     	;# 
   462  028C                     	;# 
   463  030C                     	;# 
   464  038C                     	;# 
   465  0391                     	;# 
   466  0392                     	;# 
   467  0393                     	;# 
   468  0691                     	;# 
   469  0692                     	;# 
   470  0693                     	;# 
   471  0694                     	;# 
   472  0695                     	;# 
   473  0D8E                     	;# 
   474  0D8F                     	;# 
   475  0D90                     	;# 
   476  0D91                     	;# 
   477  0D91                     	;# 
   478  0D92                     	;# 
   479  0D93                     	;# 
   480  0D93                     	;# 
   481  0D94                     	;# 
   482  0D95                     	;# 
   483  0D95                     	;# 
   484  0D96                     	;# 
   485  0D97                     	;# 
   486  0D97                     	;# 
   487  0D98                     	;# 
   488  0D99                     	;# 
   489  0D99                     	;# 
   490  0D9A                     	;# 
   491  0D9B                     	;# 
   492  0D9C                     	;# 
   493  0D9C                     	;# 
   494  0D9D                     	;# 
   495  0D9D                     	;# 
   496  0D9E                     	;# 
   497  0D9F                     	;# 
   498  0DA0                     	;# 
   499  0DA1                     	;# 
   500  0DA1                     	;# 
   501  0DA2                     	;# 
   502  0DA3                     	;# 
   503  0DA3                     	;# 
   504  0DA4                     	;# 
   505  0DA5                     	;# 
   506  0DA5                     	;# 
   507  0DA6                     	;# 
   508  0DA7                     	;# 
   509  0DA7                     	;# 
   510  0DA8                     	;# 
   511  0DA9                     	;# 
   512  0DA9                     	;# 
   513  0DAA                     	;# 
   514  0DAB                     	;# 
   515  0DAC                     	;# 
   516  0DAC                     	;# 
   517  0DAD                     	;# 
   518  0DAD                     	;# 
   519  0DAE                     	;# 
   520  0DAF                     	;# 
   521  0DB0                     	;# 
   522  0DB1                     	;# 
   523  0DB1                     	;# 
   524  0DB2                     	;# 
   525  0DB3                     	;# 
   526  0DB3                     	;# 
   527  0DB4                     	;# 
   528  0DB5                     	;# 
   529  0DB5                     	;# 
   530  0DB6                     	;# 
   531  0DB7                     	;# 
   532  0DB7                     	;# 
   533  0DB8                     	;# 
   534  0DB9                     	;# 
   535  0DB9                     	;# 
   536  0DBA                     	;# 
   537  0DBB                     	;# 
   538  0DBC                     	;# 
   539  0DBC                     	;# 
   540  0DBD                     	;# 
   541  0DBD                     	;# 
   542  0DBE                     	;# 
   543  0DBF                     	;# 
   544  0DC0                     	;# 
   545  0FE4                     	;# 
   546  0FE5                     	;# 
   547  0FE6                     	;# 
   548  0FE7                     	;# 
   549  0FE8                     	;# 
   550  0FE8                     	;# 
   551  0FE9                     	;# 
   552  0FEA                     	;# 
   553  0FEA                     	;# 
   554  0FEB                     	;# 
   555  0FED                     	;# 
   556  0FEE                     	;# 
   557  0FEE                     	;# 
   558  0FEF                     	;# 
   559  0000                     	;# 
   560  0001                     	;# 
   561  0002                     	;# 
   562  0003                     	;# 
   563  0004                     	;# 
   564  0005                     	;# 
   565  0006                     	;# 
   566  0007                     	;# 
   567  0008                     	;# 
   568  0009                     	;# 
   569  000A                     	;# 
   570  000B                     	;# 
   571  000C                     	;# 
   572  0011                     	;# 
   573  0012                     	;# 
   574  0013                     	;# 
   575  0015                     	;# 
   576  0016                     	;# 
   577  0016                     	;# 
   578  0017                     	;# 
   579  0018                     	;# 
   580  0019                     	;# 
   581  001A                     	;# 
   582  001B                     	;# 
   583  001C                     	;# 
   584  008C                     	;# 
   585  0091                     	;# 
   586  0092                     	;# 
   587  0093                     	;# 
   588  0095                     	;# 
   589  0096                     	;# 
   590  0097                     	;# 
   591  0098                     	;# 
   592  0099                     	;# 
   593  009A                     	;# 
   594  009B                     	;# 
   595  009B                     	;# 
   596  009C                     	;# 
   597  009D                     	;# 
   598  009E                     	;# 
   599  009F                     	;# 
   600  010C                     	;# 
   601  0111                     	;# 
   602  0112                     	;# 
   603  0115                     	;# 
   604  0116                     	;# 
   605  0117                     	;# 
   606  0118                     	;# 
   607  0119                     	;# 
   608  011D                     	;# 
   609  011D                     	;# 
   610  018C                     	;# 
   611  0191                     	;# 
   612  0191                     	;# 
   613  0192                     	;# 
   614  0193                     	;# 
   615  0193                     	;# 
   616  0194                     	;# 
   617  0195                     	;# 
   618  0196                     	;# 
   619  0197                     	;# 
   620  0199                     	;# 
   621  019A                     	;# 
   622  019B                     	;# 
   623  019B                     	;# 
   624  019C                     	;# 
   625  019D                     	;# 
   626  019E                     	;# 
   627  019F                     	;# 
   628  020C                     	;# 
   629  028C                     	;# 
   630  030C                     	;# 
   631  038C                     	;# 
   632  0391                     	;# 
   633  0392                     	;# 
   634  0393                     	;# 
   635  0691                     	;# 
   636  0692                     	;# 
   637  0693                     	;# 
   638  0694                     	;# 
   639  0695                     	;# 
   640  0D8E                     	;# 
   641  0D8F                     	;# 
   642  0D90                     	;# 
   643  0D91                     	;# 
   644  0D91                     	;# 
   645  0D92                     	;# 
   646  0D93                     	;# 
   647  0D93                     	;# 
   648  0D94                     	;# 
   649  0D95                     	;# 
   650  0D95                     	;# 
   651  0D96                     	;# 
   652  0D97                     	;# 
   653  0D97                     	;# 
   654  0D98                     	;# 
   655  0D99                     	;# 
   656  0D99                     	;# 
   657  0D9A                     	;# 
   658  0D9B                     	;# 
   659  0D9C                     	;# 
   660  0D9C                     	;# 
   661  0D9D                     	;# 
   662  0D9D                     	;# 
   663  0D9E                     	;# 
   664  0D9F                     	;# 
   665  0DA0                     	;# 
   666  0DA1                     	;# 
   667  0DA1                     	;# 
   668  0DA2                     	;# 
   669  0DA3                     	;# 
   670  0DA3                     	;# 
   671  0DA4                     	;# 
   672  0DA5                     	;# 
   673  0DA5                     	;# 
   674  0DA6                     	;# 
   675  0DA7                     	;# 
   676  0DA7                     	;# 
   677  0DA8                     	;# 
   678  0DA9                     	;# 
   679  0DA9                     	;# 
   680  0DAA                     	;# 
   681  0DAB                     	;# 
   682  0DAC                     	;# 
   683  0DAC                     	;# 
   684  0DAD                     	;# 
   685  0DAD                     	;# 
   686  0DAE                     	;# 
   687  0DAF                     	;# 
   688  0DB0                     	;# 
   689  0DB1                     	;# 
   690  0DB1                     	;# 
   691  0DB2                     	;# 
   692  0DB3                     	;# 
   693  0DB3                     	;# 
   694  0DB4                     	;# 
   695  0DB5                     	;# 
   696  0DB5                     	;# 
   697  0DB6                     	;# 
   698  0DB7                     	;# 
   699  0DB7                     	;# 
   700  0DB8                     	;# 
   701  0DB9                     	;# 
   702  0DB9                     	;# 
   703  0DBA                     	;# 
   704  0DBB                     	;# 
   705  0DBC                     	;# 
   706  0DBC                     	;# 
   707  0DBD                     	;# 
   708  0DBD                     	;# 
   709  0DBE                     	;# 
   710  0DBF                     	;# 
   711  0DC0                     	;# 
   712  0FE4                     	;# 
   713  0FE5                     	;# 
   714  0FE6                     	;# 
   715  0FE7                     	;# 
   716  0FE8                     	;# 
   717  0FE8                     	;# 
   718  0FE9                     	;# 
   719  0FEA                     	;# 
   720  0FEA                     	;# 
   721  0FEB                     	;# 
   722  0FED                     	;# 
   723  0FEE                     	;# 
   724  0FEE                     	;# 
   725  0FEF                     	;# 
   726  0000                     	;# 
   727  0001                     	;# 
   728  0002                     	;# 
   729  0003                     	;# 
   730  0004                     	;# 
   731  0005                     	;# 
   732  0006                     	;# 
   733  0007                     	;# 
   734  0008                     	;# 
   735  0009                     	;# 
   736  000A                     	;# 
   737  000B                     	;# 
   738  000C                     	;# 
   739  0011                     	;# 
   740  0012                     	;# 
   741  0013                     	;# 
   742  0015                     	;# 
   743  0016                     	;# 
   744  0016                     	;# 
   745  0017                     	;# 
   746  0018                     	;# 
   747  0019                     	;# 
   748  001A                     	;# 
   749  001B                     	;# 
   750  001C                     	;# 
   751  008C                     	;# 
   752  0091                     	;# 
   753  0092                     	;# 
   754  0093                     	;# 
   755  0095                     	;# 
   756  0096                     	;# 
   757  0097                     	;# 
   758  0098                     	;# 
   759  0099                     	;# 
   760  009A                     	;# 
   761  009B                     	;# 
   762  009B                     	;# 
   763  009C                     	;# 
   764  009D                     	;# 
   765  009E                     	;# 
   766  009F                     	;# 
   767  010C                     	;# 
   768  0111                     	;# 
   769  0112                     	;# 
   770  0115                     	;# 
   771  0116                     	;# 
   772  0117                     	;# 
   773  0118                     	;# 
   774  0119                     	;# 
   775  011D                     	;# 
   776  011D                     	;# 
   777  018C                     	;# 
   778  0191                     	;# 
   779  0191                     	;# 
   780  0192                     	;# 
   781  0193                     	;# 
   782  0193                     	;# 
   783  0194                     	;# 
   784  0195                     	;# 
   785  0196                     	;# 
   786  0197                     	;# 
   787  0199                     	;# 
   788  019A                     	;# 
   789  019B                     	;# 
   790  019B                     	;# 
   791  019C                     	;# 
   792  019D                     	;# 
   793  019E                     	;# 
   794  019F                     	;# 
   795  020C                     	;# 
   796  028C                     	;# 
   797  030C                     	;# 
   798  038C                     	;# 
   799  0391                     	;# 
   800  0392                     	;# 
   801  0393                     	;# 
   802  0691                     	;# 
   803  0692                     	;# 
   804  0693                     	;# 
   805  0694                     	;# 
   806  0695                     	;# 
   807  0D8E                     	;# 
   808  0D8F                     	;# 
   809  0D90                     	;# 
   810  0D91                     	;# 
   811  0D91                     	;# 
   812  0D92                     	;# 
   813  0D93                     	;# 
   814  0D93                     	;# 
   815  0D94                     	;# 
   816  0D95                     	;# 
   817  0D95                     	;# 
   818  0D96                     	;# 
   819  0D97                     	;# 
   820  0D97                     	;# 
   821  0D98                     	;# 
   822  0D99                     	;# 
   823  0D99                     	;# 
   824  0D9A                     	;# 
   825  0D9B                     	;# 
   826  0D9C                     	;# 
   827  0D9C                     	;# 
   828  0D9D                     	;# 
   829  0D9D                     	;# 
   830  0D9E                     	;# 
   831  0D9F                     	;# 
   832  0DA0                     	;# 
   833  0DA1                     	;# 
   834  0DA1                     	;# 
   835  0DA2                     	;# 
   836  0DA3                     	;# 
   837  0DA3                     	;# 
   838  0DA4                     	;# 
   839  0DA5                     	;# 
   840  0DA5                     	;# 
   841  0DA6                     	;# 
   842  0DA7                     	;# 
   843  0DA7                     	;# 
   844  0DA8                     	;# 
   845  0DA9                     	;# 
   846  0DA9                     	;# 
   847  0DAA                     	;# 
   848  0DAB                     	;# 
   849  0DAC                     	;# 
   850  0DAC                     	;# 
   851  0DAD                     	;# 
   852  0DAD                     	;# 
   853  0DAE                     	;# 
   854  0DAF                     	;# 
   855  0DB0                     	;# 
   856  0DB1                     	;# 
   857  0DB1                     	;# 
   858  0DB2                     	;# 
   859  0DB3                     	;# 
   860  0DB3                     	;# 
   861  0DB4                     	;# 
   862  0DB5                     	;# 
   863  0DB5                     	;# 
   864  0DB6                     	;# 
   865  0DB7                     	;# 
   866  0DB7                     	;# 
   867  0DB8                     	;# 
   868  0DB9                     	;# 
   869  0DB9                     	;# 
   870  0DBA                     	;# 
   871  0DBB                     	;# 
   872  0DBC                     	;# 
   873  0DBC                     	;# 
   874  0DBD                     	;# 
   875  0DBD                     	;# 
   876  0DBE                     	;# 
   877  0DBF                     	;# 
   878  0DC0                     	;# 
   879  0FE4                     	;# 
   880  0FE5                     	;# 
   881  0FE6                     	;# 
   882  0FE7                     	;# 
   883  0FE8                     	;# 
   884  0FE8                     	;# 
   885  0FE9                     	;# 
   886  0FEA                     	;# 
   887  0FEA                     	;# 
   888  0FEB                     	;# 
   889  0FED                     	;# 
   890  0FEE                     	;# 
   891  0FEE                     	;# 
   892  0FEF                     	;# 
   893                           
   894                           	psect	stringtext1
   895  06B6                     __pstringtext1:
   896  06B6                     _PWM_FREQ:
   897  06B6  34C8               	retlw	200
   898  06B7  3400               	retlw	0
   899  06B8                     __end_of_PWM_FREQ:
   900  0095                     _OPTION_REGbits	set	149
   901  008C                     _TRISA	set	140
   902  0097                     _WDTCON	set	151
   903  0098                     _OSCTUNE	set	152
   904  0099                     _OSCCON	set	153
   905  011D                     _APFCON	set	285
   906  010C                     _LATA	set	268
   907  0116                     _BORCON	set	278
   908  018C                     _ANSELA	set	396
   909  020C                     _WPUA	set	524
   910  028C                     _ODCONA	set	652
   911  030C                     _SLRCONA	set	780
   912  038C                     _INLVLA	set	908
   913  0D9D                     _PWM1INTFbits	set	3485
   914  0D9F                     _PWM1LDCONbits	set	3487
   915  0D9B                     _PWM1CONbits	set	3483
   916  0D9B                     _PWM1CON	set	3483
   917  0D99                     _PWM1TMRL	set	3481
   918  0D9A                     _PWM1TMRH	set	3482
   919  0D97                     _PWM1OFL	set	3479
   920  0D98                     _PWM1OFH	set	3480
   921  0D95                     _PWM1PRL	set	3477
   922  0D96                     _PWM1PRH	set	3478
   923  0D93                     _PWM1DCL	set	3475
   924  0D94                     _PWM1DCH	set	3476
   925  0D91                     _PWM1PHL	set	3473
   926  0D92                     _PWM1PHH	set	3474
   927  0DA0                     _PWM1OFCON	set	3488
   928  0D9F                     _PWM1LDCON	set	3487
   929  0D9E                     _PWM1CLKCON	set	3486
   930  0D9D                     _PWM1INTF	set	3485
   931  0D9C                     _PWM1INTE	set	3484
   932  0DAD                     _PWM2INTFbits	set	3501
   933  0DAF                     _PWM2LDCONbits	set	3503
   934  0DAB                     _PWM2CONbits	set	3499
   935  0DAB                     _PWM2CON	set	3499
   936  0DA9                     _PWM2TMRL	set	3497
   937  0DAA                     _PWM2TMRH	set	3498
   938  0DA7                     _PWM2OFL	set	3495
   939  0DA8                     _PWM2OFH	set	3496
   940  0DA5                     _PWM2PRL	set	3493
   941  0DA6                     _PWM2PRH	set	3494
   942  0DA3                     _PWM2DCL	set	3491
   943  0DA4                     _PWM2DCH	set	3492
   944  0DA1                     _PWM2PHL	set	3489
   945  0DA2                     _PWM2PHH	set	3490
   946  0DB0                     _PWM2OFCON	set	3504
   947  0DAF                     _PWM2LDCON	set	3503
   948  0DAE                     _PWM2CLKCON	set	3502
   949  0DAD                     _PWM2INTF	set	3501
   950  0DAC                     _PWM2INTE	set	3500
   951                           
   952                           	psect	cinit
   953  07FE                     start_initialization:	
   954                           ; #config settings
   955                           
   956  07FE                     __initialization:
   957  07FE                     end_of_initialization:	
   958                           ;End of C runtime variable initialization code
   959                           
   960  07FE                     __end_of__initialization:
   961  07FE  0020               	movlb	0
   962  07FF  2F43               	ljmp	_main	;jump to C main() function
   963                           
   964                           	psect	cstackCOMMON
   965  0070                     __pcstackCOMMON:
   966  0070                     ?_PIN_MANAGER_Initialize:
   967  0070                     ??_PIN_MANAGER_Initialize:	
   968                           ; 1 bytes @ 0x0
   969                           
   970  0070                     ?_OSCILLATOR_Initialize:	
   971                           ; 1 bytes @ 0x0
   972                           
   973  0070                     ??_OSCILLATOR_Initialize:	
   974                           ; 1 bytes @ 0x0
   975                           
   976  0070                     ?_WDT_Initialize:	
   977                           ; 1 bytes @ 0x0
   978                           
   979  0070                     ??_WDT_Initialize:	
   980                           ; 1 bytes @ 0x0
   981                           
   982  0070                     ?_PWM1_Initialize:	
   983                           ; 1 bytes @ 0x0
   984                           
   985  0070                     ??_PWM1_Initialize:	
   986                           ; 1 bytes @ 0x0
   987                           
   988  0070                     ?_PWM2_Initialize:	
   989                           ; 1 bytes @ 0x0
   990                           
   991  0070                     ??_PWM2_Initialize:	
   992                           ; 1 bytes @ 0x0
   993                           
   994  0070                     ?_SYSTEM_Initialize:	
   995                           ; 1 bytes @ 0x0
   996                           
   997  0070                     ??_SYSTEM_Initialize:	
   998                           ; 1 bytes @ 0x0
   999                           
  1000  0070                     ?_PWM2_Start:	
  1001                           ; 1 bytes @ 0x0
  1002                           
  1003  0070                     ??_PWM2_Start:	
  1004                           ; 1 bytes @ 0x0
  1005                           
  1006  0070                     ?_PWM2_PeriodSet:	
  1007                           ; 1 bytes @ 0x0
  1008                           
  1009  0070                     ?_PWM1_Start:	
  1010                           ; 1 bytes @ 0x0
  1011                           
  1012  0070                     ??_PWM1_Start:	
  1013                           ; 1 bytes @ 0x0
  1014                           
  1015  0070                     ?_PWM1_PeriodSet:	
  1016                           ; 1 bytes @ 0x0
  1017                           
  1018  0070                     ?_main:	
  1019                           ; 1 bytes @ 0x0
  1020                           
  1021  0070                     ?___aldiv:	
  1022                           ; 1 bytes @ 0x0
  1023                           
  1024  0070                     PWM2_PeriodSet@periodCount:	
  1025                           ; 4 bytes @ 0x0
  1026                           
  1027  0070                     PWM1_PeriodSet@periodCount:	
  1028                           ; 2 bytes @ 0x0
  1029                           
  1030  0070                     ___aldiv@divisor:	
  1031                           ; 2 bytes @ 0x0
  1032                           
  1033                           
  1034                           ; 4 bytes @ 0x0
  1035  0070                     	ds	2
  1036  0072                     ??_PWM2_PeriodSet:
  1037  0072                     ??_PWM1_PeriodSet:	
  1038                           ; 1 bytes @ 0x2
  1039                           
  1040                           
  1041                           ; 1 bytes @ 0x2
  1042  0072                     	ds	2
  1043  0074                     ___aldiv@dividend:
  1044                           
  1045                           ; 4 bytes @ 0x4
  1046  0074                     	ds	4
  1047  0078                     ??___aldiv:
  1048                           
  1049                           ; 1 bytes @ 0x8
  1050  0078                     	ds	1
  1051  0079                     ??_Freq_to_Toggle_Period:
  1052  0079                     ??_main:	
  1053                           ; 1 bytes @ 0x9
  1054                           
  1055  0079                     main@period:	
  1056                           ; 1 bytes @ 0x9
  1057                           
  1058                           
  1059                           ; 2 bytes @ 0x9
  1060  0079                     	ds	2
  1061                           
  1062                           	psect	cstackBANK0
  1063  0020                     __pcstackBANK0:
  1064  0020                     ___aldiv@counter:
  1065                           
  1066                           ; 1 bytes @ 0x0
  1067  0020                     	ds	1
  1068  0021                     ___aldiv@sign:
  1069                           
  1070                           ; 1 bytes @ 0x1
  1071  0021                     	ds	1
  1072  0022                     ___aldiv@quotient:
  1073                           
  1074                           ; 4 bytes @ 0x2
  1075  0022                     	ds	4
  1076  0026                     ?_Freq_to_Toggle_Period:
  1077  0026                     Freq_to_Toggle_Period@freq:	
  1078                           ; 2 bytes @ 0x6
  1079                           
  1080                           
  1081                           ; 4 bytes @ 0x6
  1082  0026                     	ds	4
  1083                           
  1084                           	psect	maintext
  1085  0743                     __pmaintext:	
  1086 ;;
  1087 ;;Main: autosize = 0, tempsize = 0, incstack = 0, save=0
  1088 ;;
  1089 ;; *************** function _main *****************
  1090 ;; Defined at:
  1091 ;;		line 57 in file "main.c"
  1092 ;; Parameters:    Size  Location     Type
  1093 ;;		None
  1094 ;; Auto vars:     Size  Location     Type
  1095 ;;  period          2    9[COMMON] unsigned short 
  1096 ;; Return value:  Size  Location     Type
  1097 ;;                  1    wreg      void 
  1098 ;; Registers used:
  1099 ;;		wreg, status,2, status,0, pclath, cstack
  1100 ;; Tracked objects:
  1101 ;;		On entry : B1F/0
  1102 ;;		On exit  : 0/0
  1103 ;;		Unchanged: 0/0
  1104 ;; Data sizes:     COMMON   BANK0   BANK1   BANK2
  1105 ;;      Params:         0       0       0       0
  1106 ;;      Locals:         2       0       0       0
  1107 ;;      Temps:          0       0       0       0
  1108 ;;      Totals:         2       0       0       0
  1109 ;;Total ram usage:        2 bytes
  1110 ;; Hardware stack levels required when called: 2
  1111 ;; This function calls:
  1112 ;;		_Freq_to_Toggle_Period
  1113 ;;		_PWM1_PeriodSet
  1114 ;;		_PWM1_Start
  1115 ;;		_PWM2_PeriodSet
  1116 ;;		_PWM2_Start
  1117 ;;		_SYSTEM_Initialize
  1118 ;; This function is called by:
  1119 ;;		Startup code after reset
  1120 ;; This function uses a non-reentrant model
  1121 ;;
  1122                           
  1123                           
  1124                           ;psect for function _main
  1125  0743                     _main:
  1126  0743                     l1104:	
  1127                           ;incstack = 0
  1128                           ; Regs used in _main: [wreg+status,2+status,0+pclath+cstack]
  1129                           
  1130                           
  1131                           ;main.c: 60:     SYSTEM_Initialize();
  1132  0743  3186  26D5  3187   	fcall	_SYSTEM_Initialize
  1133                           
  1134                           ;main.c: 77:     uint16_t period = Freq_to_Toggle_Period(PWM_FREQ);
  1135  0746  3000               	movlw	0
  1136  0747  0020               	movlb	0	; select bank0
  1137  0748  00A9               	movwf	Freq_to_Toggle_Period@freq+3
  1138  0749  3000               	movlw	0
  1139  074A  00A8               	movwf	Freq_to_Toggle_Period@freq+2
  1140  074B  3000               	movlw	0
  1141  074C  00A7               	movwf	Freq_to_Toggle_Period@freq+1
  1142  074D  30C8               	movlw	200
  1143  074E  00A6               	movwf	Freq_to_Toggle_Period@freq
  1144  074F  3187  2729  3187   	fcall	_Freq_to_Toggle_Period
  1145  0752  0020               	movlb	0	; select bank0
  1146  0753  0827               	movf	?_Freq_to_Toggle_Period+1,w
  1147  0754  00FA               	movwf	main@period+1
  1148  0755  0826               	movf	?_Freq_to_Toggle_Period,w
  1149  0756  00F9               	movwf	main@period
  1150                           
  1151                           ;main.c: 79:     PWM1_PeriodSet(period);
  1152  0757  087A               	movf	main@period+1,w
  1153  0758  00F1               	movwf	PWM1_PeriodSet@periodCount+1
  1154  0759  0879               	movf	main@period,w
  1155  075A  00F0               	movwf	PWM1_PeriodSet@periodCount
  1156  075B  3186  26C2  3187   	fcall	_PWM1_PeriodSet
  1157                           
  1158                           ;main.c: 80:     PWM2_PeriodSet(period);
  1159  075E  087A               	movf	main@period+1,w
  1160  075F  00F1               	movwf	PWM2_PeriodSet@periodCount+1
  1161  0760  0879               	movf	main@period,w
  1162  0761  00F0               	movwf	PWM2_PeriodSet@periodCount
  1163  0762  3186  26C8  3187   	fcall	_PWM2_PeriodSet
  1164  0765                     l1106:
  1165                           
  1166                           ;main.c: 82:     PWM1_Start();
  1167  0765  3186  26B8  3187   	fcall	_PWM1_Start
  1168  0768                     l1108:
  1169                           
  1170                           ;main.c: 83:     PWM2_Start();
  1171  0768  3186  26BB  3187   	fcall	_PWM2_Start
  1172  076B                     l230:	
  1173                           ;main.c: 85:     while (1)
  1174                           
  1175  076B  0063               	sleep	;# 
  1176  076C  2F6B               	goto	l230
  1177  076D  2801               	ljmp	start
  1178  076E                     __end_of_main:
  1179                           
  1180                           	psect	text1
  1181  06D5                     __ptext1:	
  1182 ;; *************** function _SYSTEM_Initialize *****************
  1183 ;; Defined at:
  1184 ;;		line 50 in file "mcc_generated_files/mcc.c"
  1185 ;; Parameters:    Size  Location     Type
  1186 ;;		None
  1187 ;; Auto vars:     Size  Location     Type
  1188 ;;		None
  1189 ;; Return value:  Size  Location     Type
  1190 ;;                  1    wreg      void 
  1191 ;; Registers used:
  1192 ;;		wreg, status,2, status,0, pclath, cstack
  1193 ;; Tracked objects:
  1194 ;;		On entry : 0/0
  1195 ;;		On exit  : 0/0
  1196 ;;		Unchanged: 0/0
  1197 ;; Data sizes:     COMMON   BANK0   BANK1   BANK2
  1198 ;;      Params:         0       0       0       0
  1199 ;;      Locals:         0       0       0       0
  1200 ;;      Temps:          0       0       0       0
  1201 ;;      Totals:         0       0       0       0
  1202 ;;Total ram usage:        0 bytes
  1203 ;; Hardware stack levels used: 1
  1204 ;; Hardware stack levels required when called: 1
  1205 ;; This function calls:
  1206 ;;		_OSCILLATOR_Initialize
  1207 ;;		_PIN_MANAGER_Initialize
  1208 ;;		_PWM1_Initialize
  1209 ;;		_PWM2_Initialize
  1210 ;;		_WDT_Initialize
  1211 ;; This function is called by:
  1212 ;;		_main
  1213 ;; This function uses a non-reentrant model
  1214 ;;
  1215                           
  1216                           
  1217                           ;psect for function _SYSTEM_Initialize
  1218  06D5                     _SYSTEM_Initialize:
  1219  06D5                     l1086:	
  1220                           ;incstack = 0
  1221                           ; Regs used in _SYSTEM_Initialize: [wreg+status,2+status,0+pclath+cstack]
  1222                           
  1223                           
  1224                           ;mcc_generated_files/mcc.c: 53:     PIN_MANAGER_Initialize();
  1225  06D5  3187  2711  3186   	fcall	_PIN_MANAGER_Initialize
  1226                           
  1227                           ;mcc_generated_files/mcc.c: 54:     OSCILLATOR_Initialize();
  1228  06D8  3186  26CE  3186   	fcall	_OSCILLATOR_Initialize
  1229                           
  1230                           ;mcc_generated_files/mcc.c: 55:     WDT_Initialize();
  1231  06DB  3186  26BE  3186   	fcall	_WDT_Initialize
  1232                           
  1233                           ;mcc_generated_files/mcc.c: 56:     PWM1_Initialize();
  1234  06DE  3186  26E5  3186   	fcall	_PWM1_Initialize
  1235                           
  1236                           ;mcc_generated_files/mcc.c: 57:     PWM2_Initialize();
  1237  06E1  3186  26FB  3186   	fcall	_PWM2_Initialize
  1238  06E4                     l21:
  1239  06E4  0008               	return
  1240  06E5                     __end_of_SYSTEM_Initialize:
  1241                           
  1242                           	psect	text2
  1243  06BE                     __ptext2:	
  1244 ;; *************** function _WDT_Initialize *****************
  1245 ;; Defined at:
  1246 ;;		line 70 in file "mcc_generated_files/mcc.c"
  1247 ;; Parameters:    Size  Location     Type
  1248 ;;		None
  1249 ;; Auto vars:     Size  Location     Type
  1250 ;;		None
  1251 ;; Return value:  Size  Location     Type
  1252 ;;                  1    wreg      void 
  1253 ;; Registers used:
  1254 ;;		wreg
  1255 ;; Tracked objects:
  1256 ;;		On entry : 0/0
  1257 ;;		On exit  : 0/0
  1258 ;;		Unchanged: 0/0
  1259 ;; Data sizes:     COMMON   BANK0   BANK1   BANK2
  1260 ;;      Params:         0       0       0       0
  1261 ;;      Locals:         0       0       0       0
  1262 ;;      Temps:          0       0       0       0
  1263 ;;      Totals:         0       0       0       0
  1264 ;;Total ram usage:        0 bytes
  1265 ;; Hardware stack levels used: 1
  1266 ;; This function calls:
  1267 ;;		Nothing
  1268 ;; This function is called by:
  1269 ;;		_SYSTEM_Initialize
  1270 ;; This function uses a non-reentrant model
  1271 ;;
  1272                           
  1273                           
  1274                           ;psect for function _WDT_Initialize
  1275  06BE                     _WDT_Initialize:
  1276  06BE                     l996:	
  1277                           ;incstack = 0
  1278                           ; Regs used in _WDT_Initialize: [wreg]
  1279                           
  1280                           
  1281                           ;mcc_generated_files/mcc.c: 73:     WDTCON = 0x16;
  1282  06BE  3016               	movlw	22
  1283  06BF  0021               	movlb	1	; select bank1
  1284  06C0  0097               	movwf	23	;volatile
  1285  06C1                     l27:
  1286  06C1  0008               	return
  1287  06C2                     __end_of_WDT_Initialize:
  1288                           
  1289                           	psect	text3
  1290  06FB                     __ptext3:	
  1291 ;; *************** function _PWM2_Initialize *****************
  1292 ;; Defined at:
  1293 ;;		line 58 in file "mcc_generated_files/pwm2.c"
  1294 ;; Parameters:    Size  Location     Type
  1295 ;;		None
  1296 ;; Auto vars:     Size  Location     Type
  1297 ;;		None
  1298 ;; Return value:  Size  Location     Type
  1299 ;;                  1    wreg      void 
  1300 ;; Registers used:
  1301 ;;		wreg, status,2
  1302 ;; Tracked objects:
  1303 ;;		On entry : 0/0
  1304 ;;		On exit  : 0/0
  1305 ;;		Unchanged: 0/0
  1306 ;; Data sizes:     COMMON   BANK0   BANK1   BANK2
  1307 ;;      Params:         0       0       0       0
  1308 ;;      Locals:         0       0       0       0
  1309 ;;      Temps:          0       0       0       0
  1310 ;;      Totals:         0       0       0       0
  1311 ;;Total ram usage:        0 bytes
  1312 ;; Hardware stack levels used: 1
  1313 ;; This function calls:
  1314 ;;		Nothing
  1315 ;; This function is called by:
  1316 ;;		_SYSTEM_Initialize
  1317 ;; This function uses a non-reentrant model
  1318 ;;
  1319                           
  1320                           
  1321                           ;psect for function _PWM2_Initialize
  1322  06FB                     _PWM2_Initialize:
  1323  06FB                     l1022:	
  1324                           ;incstack = 0
  1325                           ; Regs used in _PWM2_Initialize: [wreg+status,2]
  1326                           
  1327                           
  1328                           ;mcc_generated_files/pwm2.c: 63:     PWM2INTE = 0x00;
  1329  06FB  003B               	movlb	27	; select bank27
  1330  06FC  01AC               	clrf	44	;volatile
  1331                           
  1332                           ;mcc_generated_files/pwm2.c: 66:     PWM2INTF = 0x00;
  1333  06FD  01AD               	clrf	45	;volatile
  1334  06FE                     l1024:
  1335                           
  1336                           ;mcc_generated_files/pwm2.c: 69:     PWM2CLKCON = 0x71;
  1337  06FE  3071               	movlw	113
  1338  06FF  00AE               	movwf	46	;volatile
  1339  0700                     l1026:
  1340                           
  1341                           ;mcc_generated_files/pwm2.c: 72:     PWM2LDCON = 0x00;
  1342  0700  01AF               	clrf	47	;volatile
  1343  0701                     l1028:
  1344                           
  1345                           ;mcc_generated_files/pwm2.c: 75:     PWM2OFCON = 0x00;
  1346  0701  01B0               	clrf	48	;volatile
  1347  0702                     l1030:
  1348                           
  1349                           ;mcc_generated_files/pwm2.c: 78:     PWM2PHH = 0x00;
  1350  0702  01A2               	clrf	34	;volatile
  1351  0703                     l1032:
  1352                           
  1353                           ;mcc_generated_files/pwm2.c: 81:     PWM2PHL = 0x00;
  1354  0703  01A1               	clrf	33	;volatile
  1355  0704                     l1034:
  1356                           
  1357                           ;mcc_generated_files/pwm2.c: 84:     PWM2DCH = 0x00;
  1358  0704  01A4               	clrf	36	;volatile
  1359  0705                     l1036:
  1360                           
  1361                           ;mcc_generated_files/pwm2.c: 87:     PWM2DCL = 0x00;
  1362  0705  01A3               	clrf	35	;volatile
  1363  0706                     l1038:
  1364                           
  1365                           ;mcc_generated_files/pwm2.c: 90:     PWM2PRH = 0x00;
  1366  0706  01A6               	clrf	38	;volatile
  1367                           
  1368                           ;mcc_generated_files/pwm2.c: 93:     PWM2PRL = 0xFA;
  1369  0707  30FA               	movlw	250
  1370  0708  00A5               	movwf	37	;volatile
  1371  0709                     l1040:
  1372                           
  1373                           ;mcc_generated_files/pwm2.c: 96:     PWM2OFH = 0x00;
  1374  0709  01A8               	clrf	40	;volatile
  1375  070A                     l1042:
  1376                           
  1377                           ;mcc_generated_files/pwm2.c: 99:     PWM2OFL = 0x7D;
  1378  070A  307D               	movlw	125
  1379  070B  00A7               	movwf	39	;volatile
  1380                           
  1381                           ;mcc_generated_files/pwm2.c: 102:     PWM2TMRH = 0x00;
  1382  070C  01AA               	clrf	42	;volatile
  1383                           
  1384                           ;mcc_generated_files/pwm2.c: 105:     PWM2TMRL = 0x00;
  1385  070D  01A9               	clrf	41	;volatile
  1386  070E                     l1044:
  1387                           
  1388                           ;mcc_generated_files/pwm2.c: 108:     PWM2CON = 0x58;
  1389  070E  3058               	movlw	88
  1390  070F  00AB               	movwf	43	;volatile
  1391  0710                     l92:
  1392  0710  0008               	return
  1393  0711                     __end_of_PWM2_Initialize:
  1394                           
  1395                           	psect	text4
  1396  06E5                     __ptext4:	
  1397 ;; *************** function _PWM1_Initialize *****************
  1398 ;; Defined at:
  1399 ;;		line 58 in file "mcc_generated_files/pwm1.c"
  1400 ;; Parameters:    Size  Location     Type
  1401 ;;		None
  1402 ;; Auto vars:     Size  Location     Type
  1403 ;;		None
  1404 ;; Return value:  Size  Location     Type
  1405 ;;                  1    wreg      void 
  1406 ;; Registers used:
  1407 ;;		wreg, status,2
  1408 ;; Tracked objects:
  1409 ;;		On entry : 0/0
  1410 ;;		On exit  : 0/0
  1411 ;;		Unchanged: 0/0
  1412 ;; Data sizes:     COMMON   BANK0   BANK1   BANK2
  1413 ;;      Params:         0       0       0       0
  1414 ;;      Locals:         0       0       0       0
  1415 ;;      Temps:          0       0       0       0
  1416 ;;      Totals:         0       0       0       0
  1417 ;;Total ram usage:        0 bytes
  1418 ;; Hardware stack levels used: 1
  1419 ;; This function calls:
  1420 ;;		Nothing
  1421 ;; This function is called by:
  1422 ;;		_SYSTEM_Initialize
  1423 ;; This function uses a non-reentrant model
  1424 ;;
  1425                           
  1426                           
  1427                           ;psect for function _PWM1_Initialize
  1428  06E5                     _PWM1_Initialize:
  1429  06E5                     l998:	
  1430                           ;incstack = 0
  1431                           ; Regs used in _PWM1_Initialize: [wreg+status,2]
  1432                           
  1433                           
  1434                           ;mcc_generated_files/pwm1.c: 63:     PWM1INTE = 0x00;
  1435  06E5  003B               	movlb	27	; select bank27
  1436  06E6  019C               	clrf	28	;volatile
  1437                           
  1438                           ;mcc_generated_files/pwm1.c: 66:     PWM1INTF = 0x00;
  1439  06E7  019D               	clrf	29	;volatile
  1440  06E8                     l1000:
  1441                           
  1442                           ;mcc_generated_files/pwm1.c: 69:     PWM1CLKCON = 0x71;
  1443  06E8  3071               	movlw	113
  1444  06E9  009E               	movwf	30	;volatile
  1445  06EA                     l1002:
  1446                           
  1447                           ;mcc_generated_files/pwm1.c: 72:     PWM1LDCON = 0x00;
  1448  06EA  019F               	clrf	31	;volatile
  1449  06EB                     l1004:
  1450                           
  1451                           ;mcc_generated_files/pwm1.c: 75:     PWM1OFCON = 0x00;
  1452  06EB  01A0               	clrf	32	;volatile
  1453  06EC                     l1006:
  1454                           
  1455                           ;mcc_generated_files/pwm1.c: 78:     PWM1PHH = 0x00;
  1456  06EC  0192               	clrf	18	;volatile
  1457  06ED                     l1008:
  1458                           
  1459                           ;mcc_generated_files/pwm1.c: 81:     PWM1PHL = 0x00;
  1460  06ED  0191               	clrf	17	;volatile
  1461  06EE                     l1010:
  1462                           
  1463                           ;mcc_generated_files/pwm1.c: 84:     PWM1DCH = 0x00;
  1464  06EE  0194               	clrf	20	;volatile
  1465  06EF                     l1012:
  1466                           
  1467                           ;mcc_generated_files/pwm1.c: 87:     PWM1DCL = 0x00;
  1468  06EF  0193               	clrf	19	;volatile
  1469  06F0                     l1014:
  1470                           
  1471                           ;mcc_generated_files/pwm1.c: 90:     PWM1PRH = 0x00;
  1472  06F0  0196               	clrf	22	;volatile
  1473                           
  1474                           ;mcc_generated_files/pwm1.c: 93:     PWM1PRL = 0xFA;
  1475  06F1  30FA               	movlw	250
  1476  06F2  0095               	movwf	21	;volatile
  1477  06F3                     l1016:
  1478                           
  1479                           ;mcc_generated_files/pwm1.c: 96:     PWM1OFH = 0x00;
  1480  06F3  0198               	clrf	24	;volatile
  1481  06F4                     l1018:
  1482                           
  1483                           ;mcc_generated_files/pwm1.c: 99:     PWM1OFL = 0x7D;
  1484  06F4  307D               	movlw	125
  1485  06F5  0097               	movwf	23	;volatile
  1486                           
  1487                           ;mcc_generated_files/pwm1.c: 102:     PWM1TMRH = 0x00;
  1488  06F6  019A               	clrf	26	;volatile
  1489                           
  1490                           ;mcc_generated_files/pwm1.c: 105:     PWM1TMRL = 0x00;
  1491  06F7  0199               	clrf	25	;volatile
  1492  06F8                     l1020:
  1493                           
  1494                           ;mcc_generated_files/pwm1.c: 108:     PWM1CON = 0x48;
  1495  06F8  3048               	movlw	72
  1496  06F9  009B               	movwf	27	;volatile
  1497  06FA                     l172:
  1498  06FA  0008               	return
  1499  06FB                     __end_of_PWM1_Initialize:
  1500                           
  1501                           	psect	text5
  1502  0711                     __ptext5:	
  1503 ;; *************** function _PIN_MANAGER_Initialize *****************
  1504 ;; Defined at:
  1505 ;;		line 55 in file "mcc_generated_files/pin_manager.c"
  1506 ;; Parameters:    Size  Location     Type
  1507 ;;		None
  1508 ;; Auto vars:     Size  Location     Type
  1509 ;;		None
  1510 ;; Return value:  Size  Location     Type
  1511 ;;                  1    wreg      void 
  1512 ;; Registers used:
  1513 ;;		wreg, status,2
  1514 ;; Tracked objects:
  1515 ;;		On entry : 0/0
  1516 ;;		On exit  : 0/0
  1517 ;;		Unchanged: 0/0
  1518 ;; Data sizes:     COMMON   BANK0   BANK1   BANK2
  1519 ;;      Params:         0       0       0       0
  1520 ;;      Locals:         0       0       0       0
  1521 ;;      Temps:          0       0       0       0
  1522 ;;      Totals:         0       0       0       0
  1523 ;;Total ram usage:        0 bytes
  1524 ;; Hardware stack levels used: 1
  1525 ;; This function calls:
  1526 ;;		Nothing
  1527 ;; This function is called by:
  1528 ;;		_SYSTEM_Initialize
  1529 ;; This function uses a non-reentrant model
  1530 ;;
  1531                           
  1532                           
  1533                           ;psect for function _PIN_MANAGER_Initialize
  1534  0711                     _PIN_MANAGER_Initialize:
  1535  0711                     l976:	
  1536                           ;incstack = 0
  1537                           ; Regs used in _PIN_MANAGER_Initialize: [wreg+status,2]
  1538                           
  1539                           
  1540                           ;mcc_generated_files/pin_manager.c: 60:     LATA = 0x00;
  1541  0711  0022               	movlb	2	; select bank2
  1542  0712  018C               	clrf	12	;volatile
  1543  0713                     l978:
  1544                           
  1545                           ;mcc_generated_files/pin_manager.c: 65:     TRISA = 0x0F;
  1546  0713  300F               	movlw	15
  1547  0714  0021               	movlb	1	; select bank1
  1548  0715  008C               	movwf	12	;volatile
  1549  0716                     l980:
  1550                           
  1551                           ;mcc_generated_files/pin_manager.c: 70:     ANSELA = 0x07;
  1552  0716  3007               	movlw	7
  1553  0717  0023               	movlb	3	; select bank3
  1554  0718  008C               	movwf	12	;volatile
  1555                           
  1556                           ;mcc_generated_files/pin_manager.c: 75:     WPUA = 0x00;
  1557  0719  0024               	movlb	4	; select bank4
  1558  071A  018C               	clrf	12	;volatile
  1559  071B                     l982:
  1560                           
  1561                           ;mcc_generated_files/pin_manager.c: 76:     OPTION_REGbits.nWPUEN = 1;
  1562  071B  0021               	movlb	1	; select bank1
  1563  071C  1795               	bsf	21,7	;volatile
  1564                           
  1565                           ;mcc_generated_files/pin_manager.c: 81:     ODCONA = 0x00;
  1566  071D  0025               	movlb	5	; select bank5
  1567  071E  018C               	clrf	12	;volatile
  1568  071F                     l984:
  1569                           
  1570                           ;mcc_generated_files/pin_manager.c: 86:     SLRCONA = 0x37;
  1571  071F  3037               	movlw	55
  1572  0720  0026               	movlb	6	; select bank6
  1573  0721  008C               	movwf	12	;volatile
  1574  0722                     l986:
  1575                           
  1576                           ;mcc_generated_files/pin_manager.c: 91:     INLVLA = 0x3F;
  1577  0722  303F               	movlw	63
  1578  0723  0027               	movlb	7	; select bank7
  1579  0724  008C               	movwf	12	;volatile
  1580  0725                     l988:
  1581                           
  1582                           ;mcc_generated_files/pin_manager.c: 96:     APFCON = 0x03;
  1583  0725  3003               	movlw	3
  1584  0726  0022               	movlb	2	; select bank2
  1585  0727  009D               	movwf	29	;volatile
  1586  0728                     l48:
  1587  0728  0008               	return
  1588  0729                     __end_of_PIN_MANAGER_Initialize:
  1589                           
  1590                           	psect	text6
  1591  06CE                     __ptext6:	
  1592 ;; *************** function _OSCILLATOR_Initialize *****************
  1593 ;; Defined at:
  1594 ;;		line 60 in file "mcc_generated_files/mcc.c"
  1595 ;; Parameters:    Size  Location     Type
  1596 ;;		None
  1597 ;; Auto vars:     Size  Location     Type
  1598 ;;		None
  1599 ;; Return value:  Size  Location     Type
  1600 ;;                  1    wreg      void 
  1601 ;; Registers used:
  1602 ;;		wreg, status,2
  1603 ;; Tracked objects:
  1604 ;;		On entry : 0/0
  1605 ;;		On exit  : 0/0
  1606 ;;		Unchanged: 0/0
  1607 ;; Data sizes:     COMMON   BANK0   BANK1   BANK2
  1608 ;;      Params:         0       0       0       0
  1609 ;;      Locals:         0       0       0       0
  1610 ;;      Temps:          0       0       0       0
  1611 ;;      Totals:         0       0       0       0
  1612 ;;Total ram usage:        0 bytes
  1613 ;; Hardware stack levels used: 1
  1614 ;; This function calls:
  1615 ;;		Nothing
  1616 ;; This function is called by:
  1617 ;;		_SYSTEM_Initialize
  1618 ;; This function uses a non-reentrant model
  1619 ;;
  1620                           
  1621                           
  1622                           ;psect for function _OSCILLATOR_Initialize
  1623  06CE                     _OSCILLATOR_Initialize:
  1624  06CE                     l990:	
  1625                           ;incstack = 0
  1626                           ; Regs used in _OSCILLATOR_Initialize: [wreg+status,2]
  1627                           
  1628                           
  1629                           ;mcc_generated_files/mcc.c: 63:     OSCCON = 0x38;
  1630  06CE  3038               	movlw	56
  1631  06CF  0021               	movlb	1	; select bank1
  1632  06D0  0099               	movwf	25	;volatile
  1633  06D1                     l992:
  1634                           
  1635                           ;mcc_generated_files/mcc.c: 65:     OSCTUNE = 0x00;
  1636  06D1  0198               	clrf	24	;volatile
  1637  06D2                     l994:
  1638                           
  1639                           ;mcc_generated_files/mcc.c: 67:     BORCON = 0x00;
  1640  06D2  0022               	movlb	2	; select bank2
  1641  06D3  0196               	clrf	22	;volatile
  1642  06D4                     l24:
  1643  06D4  0008               	return
  1644  06D5                     __end_of_OSCILLATOR_Initialize:
  1645                           
  1646                           	psect	text7
  1647  06BB                     __ptext7:	
  1648 ;; *************** function _PWM2_Start *****************
  1649 ;; Defined at:
  1650 ;;		line 113 in file "mcc_generated_files/pwm2.c"
  1651 ;; Parameters:    Size  Location     Type
  1652 ;;		None
  1653 ;; Auto vars:     Size  Location     Type
  1654 ;;		None
  1655 ;; Return value:  Size  Location     Type
  1656 ;;                  1    wreg      void 
  1657 ;; Registers used:
  1658 ;;		None
  1659 ;; Tracked objects:
  1660 ;;		On entry : 0/0
  1661 ;;		On exit  : 0/0
  1662 ;;		Unchanged: 0/0
  1663 ;; Data sizes:     COMMON   BANK0   BANK1   BANK2
  1664 ;;      Params:         0       0       0       0
  1665 ;;      Locals:         0       0       0       0
  1666 ;;      Temps:          0       0       0       0
  1667 ;;      Totals:         0       0       0       0
  1668 ;;Total ram usage:        0 bytes
  1669 ;; Hardware stack levels used: 1
  1670 ;; This function calls:
  1671 ;;		Nothing
  1672 ;; This function is called by:
  1673 ;;		_main
  1674 ;; This function uses a non-reentrant model
  1675 ;;
  1676                           
  1677                           
  1678                           ;psect for function _PWM2_Start
  1679  06BB                     _PWM2_Start:
  1680  06BB                     l1088:	
  1681                           ;incstack = 0
  1682                           ; Regs used in _PWM2_Start: []
  1683                           
  1684                           
  1685                           ;mcc_generated_files/pwm2.c: 115:     PWM2CONbits.EN = 1;
  1686  06BB  003B               	movlb	27	; select bank27
  1687  06BC  17AB               	bsf	43,7	;volatile
  1688  06BD                     l95:
  1689  06BD  0008               	return
  1690  06BE                     __end_of_PWM2_Start:
  1691                           
  1692                           	psect	text8
  1693  06C8                     __ptext8:	
  1694 ;; *************** function _PWM2_PeriodSet *****************
  1695 ;; Defined at:
  1696 ;;		line 145 in file "mcc_generated_files/pwm2.c"
  1697 ;; Parameters:    Size  Location     Type
  1698 ;;  periodCount     2    0[COMMON] unsigned short 
  1699 ;; Auto vars:     Size  Location     Type
  1700 ;;		None
  1701 ;; Return value:  Size  Location     Type
  1702 ;;                  1    wreg      void 
  1703 ;; Registers used:
  1704 ;;		wreg, status,2
  1705 ;; Tracked objects:
  1706 ;;		On entry : 0/0
  1707 ;;		On exit  : 0/0
  1708 ;;		Unchanged: 0/0
  1709 ;; Data sizes:     COMMON   BANK0   BANK1   BANK2
  1710 ;;      Params:         2       0       0       0
  1711 ;;      Locals:         0       0       0       0
  1712 ;;      Temps:          0       0       0       0
  1713 ;;      Totals:         2       0       0       0
  1714 ;;Total ram usage:        2 bytes
  1715 ;; Hardware stack levels used: 1
  1716 ;; This function calls:
  1717 ;;		Nothing
  1718 ;; This function is called by:
  1719 ;;		_main
  1720 ;; This function uses a non-reentrant model
  1721 ;;
  1722                           
  1723                           
  1724                           ;psect for function _PWM2_PeriodSet
  1725  06C8                     _PWM2_PeriodSet:
  1726  06C8                     l1090:	
  1727                           ;incstack = 0
  1728                           ; Regs used in _PWM2_PeriodSet: [wreg+status,2]
  1729                           
  1730                           
  1731                           ;mcc_generated_files/pwm2.c: 145: void PWM2_PeriodSet(uint16_t periodCount);mcc_generate
      +                          d_files/pwm2.c: 146: {;mcc_generated_files/pwm2.c: 147:     PWM2PRH = (periodCount>>8);
  1732  06C8  0871               	movf	PWM2_PeriodSet@periodCount+1,w
  1733  06C9  003B               	movlb	27	; select bank27
  1734  06CA  00A6               	movwf	38	;volatile
  1735  06CB                     l1092:
  1736                           
  1737                           ;mcc_generated_files/pwm2.c: 148:     PWM2PRL = (periodCount);
  1738  06CB  0870               	movf	PWM2_PeriodSet@periodCount,w
  1739  06CC  00A5               	movwf	37	;volatile
  1740  06CD                     l113:
  1741  06CD  0008               	return
  1742  06CE                     __end_of_PWM2_PeriodSet:
  1743                           
  1744                           	psect	text9
  1745  06B8                     __ptext9:	
  1746 ;; *************** function _PWM1_Start *****************
  1747 ;; Defined at:
  1748 ;;		line 113 in file "mcc_generated_files/pwm1.c"
  1749 ;; Parameters:    Size  Location     Type
  1750 ;;		None
  1751 ;; Auto vars:     Size  Location     Type
  1752 ;;		None
  1753 ;; Return value:  Size  Location     Type
  1754 ;;                  1    wreg      void 
  1755 ;; Registers used:
  1756 ;;		None
  1757 ;; Tracked objects:
  1758 ;;		On entry : 0/0
  1759 ;;		On exit  : 0/0
  1760 ;;		Unchanged: 0/0
  1761 ;; Data sizes:     COMMON   BANK0   BANK1   BANK2
  1762 ;;      Params:         0       0       0       0
  1763 ;;      Locals:         0       0       0       0
  1764 ;;      Temps:          0       0       0       0
  1765 ;;      Totals:         0       0       0       0
  1766 ;;Total ram usage:        0 bytes
  1767 ;; Hardware stack levels used: 1
  1768 ;; This function calls:
  1769 ;;		Nothing
  1770 ;; This function is called by:
  1771 ;;		_main
  1772 ;; This function uses a non-reentrant model
  1773 ;;
  1774                           
  1775                           
  1776                           ;psect for function _PWM1_Start
  1777  06B8                     _PWM1_Start:
  1778  06B8                     l1094:	
  1779                           ;incstack = 0
  1780                           ; Regs used in _PWM1_Start: []
  1781                           
  1782                           
  1783                           ;mcc_generated_files/pwm1.c: 115:     PWM1CONbits.EN = 1;
  1784  06B8  003B               	movlb	27	; select bank27
  1785  06B9  179B               	bsf	27,7	;volatile
  1786  06BA                     l175:
  1787  06BA  0008               	return
  1788  06BB                     __end_of_PWM1_Start:
  1789                           
  1790                           	psect	text10
  1791  06C2                     __ptext10:	
  1792 ;; *************** function _PWM1_PeriodSet *****************
  1793 ;; Defined at:
  1794 ;;		line 145 in file "mcc_generated_files/pwm1.c"
  1795 ;; Parameters:    Size  Location     Type
  1796 ;;  periodCount     2    0[COMMON] unsigned short 
  1797 ;; Auto vars:     Size  Location     Type
  1798 ;;		None
  1799 ;; Return value:  Size  Location     Type
  1800 ;;                  1    wreg      void 
  1801 ;; Registers used:
  1802 ;;		wreg, status,2
  1803 ;; Tracked objects:
  1804 ;;		On entry : 0/0
  1805 ;;		On exit  : 0/0
  1806 ;;		Unchanged: 0/0
  1807 ;; Data sizes:     COMMON   BANK0   BANK1   BANK2
  1808 ;;      Params:         2       0       0       0
  1809 ;;      Locals:         0       0       0       0
  1810 ;;      Temps:          0       0       0       0
  1811 ;;      Totals:         2       0       0       0
  1812 ;;Total ram usage:        2 bytes
  1813 ;; Hardware stack levels used: 1
  1814 ;; This function calls:
  1815 ;;		Nothing
  1816 ;; This function is called by:
  1817 ;;		_main
  1818 ;; This function uses a non-reentrant model
  1819 ;;
  1820                           
  1821                           
  1822                           ;psect for function _PWM1_PeriodSet
  1823  06C2                     _PWM1_PeriodSet:
  1824  06C2                     l1096:	
  1825                           ;incstack = 0
  1826                           ; Regs used in _PWM1_PeriodSet: [wreg+status,2]
  1827                           
  1828                           
  1829                           ;mcc_generated_files/pwm1.c: 145: void PWM1_PeriodSet(uint16_t periodCount);mcc_generate
      +                          d_files/pwm1.c: 146: {;mcc_generated_files/pwm1.c: 147:     PWM1PRH = (periodCount>>8);
  1830  06C2  0871               	movf	PWM1_PeriodSet@periodCount+1,w
  1831  06C3  003B               	movlb	27	; select bank27
  1832  06C4  0096               	movwf	22	;volatile
  1833  06C5                     l1098:
  1834                           
  1835                           ;mcc_generated_files/pwm1.c: 148:     PWM1PRL = (periodCount);
  1836  06C5  0870               	movf	PWM1_PeriodSet@periodCount,w
  1837  06C6  0095               	movwf	21	;volatile
  1838  06C7                     l193:
  1839  06C7  0008               	return
  1840  06C8                     __end_of_PWM1_PeriodSet:
  1841                           
  1842                           	psect	text11
  1843  0729                     __ptext11:	
  1844 ;; *************** function _Freq_to_Toggle_Period *****************
  1845 ;; Defined at:
  1846 ;;		line 92 in file "main.c"
  1847 ;; Parameters:    Size  Location     Type
  1848 ;;  freq            4    6[BANK0 ] long 
  1849 ;; Auto vars:     Size  Location     Type
  1850 ;;		None
  1851 ;; Return value:  Size  Location     Type
  1852 ;;                  2    6[BANK0 ] unsigned short 
  1853 ;; Registers used:
  1854 ;;		wreg, status,2, status,0, pclath, cstack
  1855 ;; Tracked objects:
  1856 ;;		On entry : 0/0
  1857 ;;		On exit  : 0/0
  1858 ;;		Unchanged: 0/0
  1859 ;; Data sizes:     COMMON   BANK0   BANK1   BANK2
  1860 ;;      Params:         0       4       0       0
  1861 ;;      Locals:         0       0       0       0
  1862 ;;      Temps:          0       0       0       0
  1863 ;;      Totals:         0       4       0       0
  1864 ;;Total ram usage:        4 bytes
  1865 ;; Hardware stack levels used: 1
  1866 ;; Hardware stack levels required when called: 1
  1867 ;; This function calls:
  1868 ;;		___aldiv
  1869 ;; This function is called by:
  1870 ;;		_main
  1871 ;; This function uses a non-reentrant model
  1872 ;;
  1873                           
  1874                           
  1875                           ;psect for function _Freq_to_Toggle_Period
  1876  0729                     _Freq_to_Toggle_Period:
  1877  0729                     l1100:	
  1878                           ;incstack = 0
  1879                           ; Regs used in _Freq_to_Toggle_Period: [wreg+status,2+status,0+pclath+cstack]
  1880                           
  1881                           
  1882                           ;main.c: 92: uint16_t Freq_to_Toggle_Period(long freq);main.c: 93: {;main.c: 94:     ret
      +                          urn ((16000000L) / (128)) / ( freq * 2 );
  1883  0729  0020               	movlb	0	; select bank0
  1884  072A  3526               	lslf	Freq_to_Toggle_Period@freq,w
  1885  072B  00F0               	movwf	___aldiv@divisor
  1886  072C  0D27               	rlf	Freq_to_Toggle_Period@freq+1,w
  1887  072D  00F1               	movwf	___aldiv@divisor+1
  1888  072E  0D28               	rlf	Freq_to_Toggle_Period@freq+2,w
  1889  072F  00F2               	movwf	___aldiv@divisor+2
  1890  0730  0D29               	rlf	Freq_to_Toggle_Period@freq+3,w
  1891  0731  00F3               	movwf	___aldiv@divisor+3
  1892  0732  3000               	movlw	0
  1893  0733  00F7               	movwf	___aldiv@dividend+3
  1894  0734  3001               	movlw	1
  1895  0735  00F6               	movwf	___aldiv@dividend+2
  1896  0736  30E8               	movlw	232
  1897  0737  00F5               	movwf	___aldiv@dividend+1
  1898  0738  3048               	movlw	72
  1899  0739  00F4               	movwf	___aldiv@dividend
  1900  073A  3187  276E  3187   	fcall	___aldiv
  1901  073D  0871               	movf	?___aldiv+1,w
  1902  073E  0020               	movlb	0	; select bank0
  1903  073F  00A7               	movwf	?_Freq_to_Toggle_Period+1
  1904  0740  0870               	movf	?___aldiv,w
  1905  0741  00A6               	movwf	?_Freq_to_Toggle_Period
  1906  0742                     l236:
  1907  0742  0008               	return
  1908  0743                     __end_of_Freq_to_Toggle_Period:
  1909                           
  1910                           	psect	text12
  1911  076E                     __ptext12:	
  1912 ;; *************** function ___aldiv *****************
  1913 ;; Defined at:
  1914 ;;		line 5 in file "C:\Program Files\Microchip\xc8\v2.32\pic\sources\c99\common\aldiv.c"
  1915 ;; Parameters:    Size  Location     Type
  1916 ;;  divisor         4    0[COMMON] long 
  1917 ;;  dividend        4    4[COMMON] long 
  1918 ;; Auto vars:     Size  Location     Type
  1919 ;;  quotient        4    2[BANK0 ] long 
  1920 ;;  sign            1    1[BANK0 ] unsigned char 
  1921 ;;  counter         1    0[BANK0 ] unsigned char 
  1922 ;; Return value:  Size  Location     Type
  1923 ;;                  4    0[COMMON] long 
  1924 ;; Registers used:
  1925 ;;		wreg, status,2, status,0
  1926 ;; Tracked objects:
  1927 ;;		On entry : 0/0
  1928 ;;		On exit  : 0/0
  1929 ;;		Unchanged: 0/0
  1930 ;; Data sizes:     COMMON   BANK0   BANK1   BANK2
  1931 ;;      Params:         8       0       0       0
  1932 ;;      Locals:         0       6       0       0
  1933 ;;      Temps:          1       0       0       0
  1934 ;;      Totals:         9       6       0       0
  1935 ;;Total ram usage:       15 bytes
  1936 ;; Hardware stack levels used: 1
  1937 ;; This function calls:
  1938 ;;		Nothing
  1939 ;; This function is called by:
  1940 ;;		_Freq_to_Toggle_Period
  1941 ;; This function uses a non-reentrant model
  1942 ;;
  1943                           
  1944                           
  1945                           ;psect for function ___aldiv
  1946  076E                     ___aldiv:
  1947  076E                     l1046:	
  1948                           ;incstack = 0
  1949                           ; Regs used in ___aldiv: [wreg+status,2+status,0]
  1950                           
  1951  076E  0020               	movlb	0	; select bank0
  1952  076F  01A1               	clrf	___aldiv@sign
  1953  0770                     l1048:
  1954  0770  1FF3               	btfss	___aldiv@divisor+3,7
  1955  0771  2F73               	goto	u111
  1956  0772  2F74               	goto	u110
  1957  0773                     u111:
  1958  0773  2F81               	goto	l369
  1959  0774                     u110:
  1960  0774                     l1050:
  1961  0774  09F0               	comf	___aldiv@divisor,f
  1962  0775  09F1               	comf	___aldiv@divisor+1,f
  1963  0776  09F2               	comf	___aldiv@divisor+2,f
  1964  0777  09F3               	comf	___aldiv@divisor+3,f
  1965  0778  0AF0               	incf	___aldiv@divisor,f
  1966  0779  1903               	skipnz
  1967  077A  0AF1               	incf	___aldiv@divisor+1,f
  1968  077B  1903               	skipnz
  1969  077C  0AF2               	incf	___aldiv@divisor+2,f
  1970  077D  1903               	skipnz
  1971  077E  0AF3               	incf	___aldiv@divisor+3,f
  1972  077F  01A1               	clrf	___aldiv@sign
  1973  0780  0AA1               	incf	___aldiv@sign,f
  1974  0781                     l369:
  1975  0781  1FF7               	btfss	___aldiv@dividend+3,7
  1976  0782  2F84               	goto	u121
  1977  0783  2F85               	goto	u120
  1978  0784                     u121:
  1979  0784  2F94               	goto	l1056
  1980  0785                     u120:
  1981  0785                     l1052:
  1982  0785  09F4               	comf	___aldiv@dividend,f
  1983  0786  09F5               	comf	___aldiv@dividend+1,f
  1984  0787  09F6               	comf	___aldiv@dividend+2,f
  1985  0788  09F7               	comf	___aldiv@dividend+3,f
  1986  0789  0AF4               	incf	___aldiv@dividend,f
  1987  078A  1903               	skipnz
  1988  078B  0AF5               	incf	___aldiv@dividend+1,f
  1989  078C  1903               	skipnz
  1990  078D  0AF6               	incf	___aldiv@dividend+2,f
  1991  078E  1903               	skipnz
  1992  078F  0AF7               	incf	___aldiv@dividend+3,f
  1993  0790                     l1054:
  1994  0790  3001               	movlw	1
  1995  0791  00F8               	movwf	??___aldiv
  1996  0792  0878               	movf	??___aldiv,w
  1997  0793  06A1               	xorwf	___aldiv@sign,f
  1998  0794                     l1056:
  1999  0794  3000               	movlw	0
  2000  0795  00A5               	movwf	___aldiv@quotient+3
  2001  0796  3000               	movlw	0
  2002  0797  00A4               	movwf	___aldiv@quotient+2
  2003  0798  3000               	movlw	0
  2004  0799  00A3               	movwf	___aldiv@quotient+1
  2005  079A  3000               	movlw	0
  2006  079B  00A2               	movwf	___aldiv@quotient
  2007  079C                     l1058:
  2008  079C  0873               	movf	___aldiv@divisor+3,w
  2009  079D  0472               	iorwf	___aldiv@divisor+2,w
  2010  079E  0471               	iorwf	___aldiv@divisor+1,w
  2011  079F  0470               	iorwf	___aldiv@divisor,w
  2012  07A0  1903               	skipnz
  2013  07A1  2FA3               	goto	u131
  2014  07A2  2FA4               	goto	u130
  2015  07A3                     u131:
  2016  07A3  2FE5               	goto	l1078
  2017  07A4                     u130:
  2018  07A4                     l1060:
  2019  07A4  01A0               	clrf	___aldiv@counter
  2020  07A5  0AA0               	incf	___aldiv@counter,f
  2021  07A6  2FB2               	goto	l1064
  2022  07A7                     l1062:
  2023  07A7  3001               	movlw	1
  2024  07A8                     u145:
  2025  07A8  35F0               	lslf	___aldiv@divisor,f
  2026  07A9  0DF1               	rlf	___aldiv@divisor+1,f
  2027  07AA  0DF2               	rlf	___aldiv@divisor+2,f
  2028  07AB  0DF3               	rlf	___aldiv@divisor+3,f
  2029  07AC  0B89               	decfsz	9,f
  2030  07AD  2FA8               	goto	u145
  2031  07AE  3001               	movlw	1
  2032  07AF  00F8               	movwf	??___aldiv
  2033  07B0  0878               	movf	??___aldiv,w
  2034  07B1  07A0               	addwf	___aldiv@counter,f
  2035  07B2                     l1064:
  2036  07B2  1FF3               	btfss	___aldiv@divisor+3,7
  2037  07B3  2FB5               	goto	u151
  2038  07B4  2FB6               	goto	u150
  2039  07B5                     u151:
  2040  07B5  2FA7               	goto	l1062
  2041  07B6                     u150:
  2042  07B6                     l1066:
  2043  07B6  3001               	movlw	1
  2044  07B7                     u165:
  2045  07B7  35A2               	lslf	___aldiv@quotient,f
  2046  07B8  0DA3               	rlf	___aldiv@quotient+1,f
  2047  07B9  0DA4               	rlf	___aldiv@quotient+2,f
  2048  07BA  0DA5               	rlf	___aldiv@quotient+3,f
  2049  07BB  0B89               	decfsz	9,f
  2050  07BC  2FB7               	goto	u165
  2051  07BD                     l1068:
  2052  07BD  0873               	movf	___aldiv@divisor+3,w
  2053  07BE  0277               	subwf	___aldiv@dividend+3,w
  2054  07BF  1D03               	skipz
  2055  07C0  2FCB               	goto	u175
  2056  07C1  0872               	movf	___aldiv@divisor+2,w
  2057  07C2  0276               	subwf	___aldiv@dividend+2,w
  2058  07C3  1D03               	skipz
  2059  07C4  2FCB               	goto	u175
  2060  07C5  0871               	movf	___aldiv@divisor+1,w
  2061  07C6  0275               	subwf	___aldiv@dividend+1,w
  2062  07C7  1D03               	skipz
  2063  07C8  2FCB               	goto	u175
  2064  07C9  0870               	movf	___aldiv@divisor,w
  2065  07CA  0274               	subwf	___aldiv@dividend,w
  2066  07CB                     u175:
  2067  07CB  1C03               	skipc
  2068  07CC  2FCE               	goto	u171
  2069  07CD  2FCF               	goto	u170
  2070  07CE                     u171:
  2071  07CE  2FD8               	goto	l1074
  2072  07CF                     u170:
  2073  07CF                     l1070:
  2074  07CF  0870               	movf	___aldiv@divisor,w
  2075  07D0  02F4               	subwf	___aldiv@dividend,f
  2076  07D1  0871               	movf	___aldiv@divisor+1,w
  2077  07D2  3BF5               	subwfb	___aldiv@dividend+1,f
  2078  07D3  0872               	movf	___aldiv@divisor+2,w
  2079  07D4  3BF6               	subwfb	___aldiv@dividend+2,f
  2080  07D5  0873               	movf	___aldiv@divisor+3,w
  2081  07D6  3BF7               	subwfb	___aldiv@dividend+3,f
  2082  07D7                     l1072:
  2083  07D7  1422               	bsf	___aldiv@quotient,0
  2084  07D8                     l1074:
  2085  07D8  3001               	movlw	1
  2086  07D9                     u185:
  2087  07D9  36F3               	lsrf	___aldiv@divisor+3,f
  2088  07DA  0CF2               	rrf	___aldiv@divisor+2,f
  2089  07DB  0CF1               	rrf	___aldiv@divisor+1,f
  2090  07DC  0CF0               	rrf	___aldiv@divisor,f
  2091  07DD  0B89               	decfsz	9,f
  2092  07DE  2FD9               	goto	u185
  2093  07DF                     l1076:
  2094  07DF  3001               	movlw	1
  2095  07E0  02A0               	subwf	___aldiv@counter,f
  2096  07E1  1D03               	btfss	3,2
  2097  07E2  2FE4               	goto	u191
  2098  07E3  2FE5               	goto	u190
  2099  07E4                     u191:
  2100  07E4  2FB6               	goto	l1066
  2101  07E5                     u190:
  2102  07E5                     l1078:
  2103  07E5  0821               	movf	___aldiv@sign,w
  2104  07E6  1903               	btfsc	3,2
  2105  07E7  2FE9               	goto	u201
  2106  07E8  2FEA               	goto	u200
  2107  07E9                     u201:
  2108  07E9  2FF5               	goto	l1082
  2109  07EA                     u200:
  2110  07EA                     l1080:
  2111  07EA  09A2               	comf	___aldiv@quotient,f
  2112  07EB  09A3               	comf	___aldiv@quotient+1,f
  2113  07EC  09A4               	comf	___aldiv@quotient+2,f
  2114  07ED  09A5               	comf	___aldiv@quotient+3,f
  2115  07EE  0AA2               	incf	___aldiv@quotient,f
  2116  07EF  1903               	skipnz
  2117  07F0  0AA3               	incf	___aldiv@quotient+1,f
  2118  07F1  1903               	skipnz
  2119  07F2  0AA4               	incf	___aldiv@quotient+2,f
  2120  07F3  1903               	skipnz
  2121  07F4  0AA5               	incf	___aldiv@quotient+3,f
  2122  07F5                     l1082:
  2123  07F5  0825               	movf	___aldiv@quotient+3,w
  2124  07F6  00F3               	movwf	?___aldiv+3
  2125  07F7  0824               	movf	___aldiv@quotient+2,w
  2126  07F8  00F2               	movwf	?___aldiv+2
  2127  07F9  0823               	movf	___aldiv@quotient+1,w
  2128  07FA  00F1               	movwf	?___aldiv+1
  2129  07FB  0822               	movf	___aldiv@quotient,w
  2130  07FC  00F0               	movwf	?___aldiv
  2131  07FD                     l379:
  2132  07FD  0008               	return
  2133  07FE                     __end_of___aldiv:
  2134  007E                     btemp	set	126	;btemp
  2135  007E                     wtemp0	set	126
  2136                           
  2137                           	psect	config
  2138                           
  2139                           ;Config register CONFIG1 @ 0x8007
  2140                           ;	
  2141                           ;	FOSC = INTOSC, INTOSC oscillator; I/O function on CLKIN pin
  2142                           ;	Watchdog Timer Enable
  2143                           ;	WDTE = OFF, WDT disabled
  2144                           ;	Power-up Timer Enable
  2145                           ;	PWRTE = OFF, PWRT disabled
  2146                           ;	MCLR Pin Function Select
  2147                           ;	MCLRE = ON, MCLR/VPP pin function is MCLR
  2148                           ;	Flash Program Memory Code Protection
  2149                           ;	CP = OFF, Program memory code protection is disabled
  2150                           ;	Brown-out Reset Enable
  2151                           ;	BOREN = ON, Brown-out Reset enabled
  2152                           ;	Clock Out Enable
  2153                           ;	CLKOUTEN = OFF, CLKOUT function is disabled. I/O or oscillator function on the CLKOUT 
      +                          pin
  2154  8007                     	org	32775
  2155  8007  3FE4               	dw	16356
  2156                           
  2157                           ;Config register CONFIG2 @ 0x8008
  2158                           ;	Flash Memory Self-Write Protection
  2159                           ;	WRT = OFF, Write protection off
  2160                           ;	PLL Enable
  2161                           ;	PLLEN = OFF, 4x PLL disabled
  2162                           ;	Stack Overflow/Underflow Reset Enable
  2163                           ;	STVREN = ON, Stack Overflow or Underflow will cause a Reset
  2164                           ;	Brown-out Reset Voltage Selection
  2165                           ;	BORV = LO, Brown-out Reset Voltage (Vbor), low trip point selected.
  2166                           ;	Low Power Brown-out Reset enable bit
  2167                           ;	LPBOREN = OFF, LPBOR is disabled
  2168                           ;	Low-Voltage Programming Enable
  2169                           ;	LVP = ON, Low-voltage programming enabled
  2170  8008                     	org	32776
  2171  8008  3EFF               	dw	16127

Data Sizes:
    Strings     0
    Constant    2
    Data        0
    BSS         0
    Persistent  32
    Stack       0

Auto Spaces:
    Space          Size  Autos    Used
    COMMON           14     11      11
    BANK0            80     10      10
    BANK1            80      0       0
    BANK2            80      0       0

Pointer List with Targets:

    None.

Critical Paths under _main in COMMON

    _Freq_to_Toggle_Period->___aldiv

Critical Paths under _main in BANK0

    _main->_Freq_to_Toggle_Period
    _Freq_to_Toggle_Period->___aldiv

Critical Paths under _main in BANK1

    None.

Critical Paths under _main in BANK2

    None.

Call Graph Tables:

 ---------------------------------------------------------------------------------
 (Depth) Function   	        Calls       Base Space   Used Autos Params    Refs
 ---------------------------------------------------------------------------------
 (0) _main                                                 2     2      0     835
                                              9 COMMON     2     2      0
              _Freq_to_Toggle_Period
                     _PWM1_PeriodSet
                         _PWM1_Start
                     _PWM2_PeriodSet
                         _PWM2_Start
                  _SYSTEM_Initialize
 ---------------------------------------------------------------------------------
 (1) _SYSTEM_Initialize                                    0     0      0       0
              _OSCILLATOR_Initialize
             _PIN_MANAGER_Initialize
                    _PWM1_Initialize
                    _PWM2_Initialize
                     _WDT_Initialize
 ---------------------------------------------------------------------------------
 (2) _WDT_Initialize                                       0     0      0       0
 ---------------------------------------------------------------------------------
 (2) _PWM2_Initialize                                      0     0      0       0
 ---------------------------------------------------------------------------------
 (2) _PWM1_Initialize                                      0     0      0       0
 ---------------------------------------------------------------------------------
 (2) _PIN_MANAGER_Initialize                               0     0      0       0
 ---------------------------------------------------------------------------------
 (2) _OSCILLATOR_Initialize                                0     0      0       0
 ---------------------------------------------------------------------------------
 (1) _PWM2_Start                                           0     0      0       0
 ---------------------------------------------------------------------------------
 (1) _PWM2_PeriodSet                                       2     0      2     120
                                              0 COMMON     2     0      2
 ---------------------------------------------------------------------------------
 (1) _PWM1_Start                                           0     0      0       0
 ---------------------------------------------------------------------------------
 (1) _PWM1_PeriodSet                                       2     0      2     120
                                              0 COMMON     2     0      2
 ---------------------------------------------------------------------------------
 (1) _Freq_to_Toggle_Period                                4     0      4     550
                                              6 BANK0      4     0      4
                            ___aldiv
 ---------------------------------------------------------------------------------
 (2) ___aldiv                                             15     7      8     452
                                              0 COMMON     9     1      8
                                              0 BANK0      6     6      0
 ---------------------------------------------------------------------------------
 Estimated maximum stack depth 2
 ---------------------------------------------------------------------------------

 Call Graph Graphs:

 _main (ROOT)
   _Freq_to_Toggle_Period
     ___aldiv
   _PWM1_PeriodSet
   _PWM1_Start
   _PWM2_PeriodSet
   _PWM2_Start
   _SYSTEM_Initialize
     _OSCILLATOR_Initialize
     _PIN_MANAGER_Initialize
     _PWM1_Initialize
     _PWM2_Initialize
     _WDT_Initialize

 Address spaces:
Name               Size   Autos  Total    Cost      Usage
BIGRAM              F0      0       0       0        0.0%
NULL                 0      0       0       0        0.0%
CODE                 0      0       0       0        0.0%
BITCOMMON            E      0       0       1        0.0%
BITSFR0              0      0       0       1        0.0%
SFR0                 0      0       0       1        0.0%
COMMON               E      B       B       2       78.6%
BITSFR1              0      0       0       2        0.0%
SFR1                 0      0       0       2        0.0%
BITSFR2              0      0       0       3        0.0%
SFR2                 0      0       0       3        0.0%
STACK                0      0       0       3        0.0%
BITSFR3              0      0       0       4        0.0%
SFR3                 0      0       0       4        0.0%
ABS                  0      0       0       4        0.0%
BITBANK0            50      0       0       5        0.0%
BITSFR4              0      0       0       5        0.0%
SFR4                 0      0       0       5        0.0%
BANK0               50      A       A       6       12.5%
BITSFR5              0      0       0       6        0.0%
SFR5                 0      0       0       6        0.0%
BITBANK1            50      0       0       7        0.0%
BITSFR6              0      0       0       7        0.0%
SFR6                 0      0       0       7        0.0%
BANK1               50      0       0       8        0.0%
BITSFR7              0      0       0       8        0.0%
SFR7                 0      0       0       8        0.0%
BITBANK2            50      0       0       9        0.0%
BITSFR8              0      0       0       9        0.0%
SFR8                 0      0       0       9        0.0%
BANK2               50      0       0      10        0.0%
BITSFR9              0      0       0      10        0.0%
SFR9                 0      0       0      10        0.0%
BITSFR10             0      0       0      11        0.0%
SFR10                0      0       0      11        0.0%
DATA                 0      0       0      11        0.0%
BITSFR11             0      0       0      12        0.0%
SFR11                0      0       0      12        0.0%
BITSFR12             0      0       0      13        0.0%
SFR12                0      0       0      13        0.0%
BITSFR13             0      0       0      14        0.0%
SFR13                0      0       0      14        0.0%
BITSFR14             0      0       0      15        0.0%
SFR14                0      0       0      15        0.0%
BITSFR15             0      0       0      16        0.0%
SFR15                0      0       0      16        0.0%
BITSFR16             0      0       0      17        0.0%
SFR16                0      0       0      17        0.0%
BITSFR17             0      0       0      18        0.0%
SFR17                0      0       0      18        0.0%
BITSFR18             0      0       0      19        0.0%
SFR18                0      0       0      19        0.0%
BITSFR19             0      0       0      20        0.0%
SFR19                0      0       0      20        0.0%
BITSFR20             0      0       0      21        0.0%
SFR20                0      0       0      21        0.0%
BITSFR21             0      0       0      22        0.0%
SFR21                0      0       0      22        0.0%
BITSFR22             0      0       0      23        0.0%
SFR22                0      0       0      23        0.0%
BITSFR23             0      0       0      24        0.0%
SFR23                0      0       0      24        0.0%
BITSFR24             0      0       0      25        0.0%
SFR24                0      0       0      25        0.0%
BITSFR25             0      0       0      26        0.0%
SFR25                0      0       0      26        0.0%
BITSFR26             0      0       0      27        0.0%
SFR26                0      0       0      27        0.0%
BITSFR27             0      0       0      28        0.0%
SFR27                0      0       0      28        0.0%
BITSFR28             0      0       0      29        0.0%
SFR28                0      0       0      29        0.0%
BITSFR29             0      0       0      30        0.0%
SFR29                0      0       0      30        0.0%
BITSFR30             0      0       0      31        0.0%
SFR30                0      0       0      31        0.0%
BITSFR31             0      0       0      32        0.0%
SFR31                0      0       0      32        0.0%


Microchip Technology PIC Macro Assembler V2.32 build 20210201212658 
Symbol Table                                                                                   Sun Jun 20 11:55:56 2021

                             l21 06E4                               l24 06D4                               l27 06C1  
                             l48 0728                               l92 0710                               l95 06BD  
                            l113 06CD                              l230 076B                              l236 0742  
                            l172 06FA                              l175 06BA                              l193 06C7  
                            l369 0781                              l379 07FD                              l980 0716  
                            l990 06CE                              l982 071B                              l992 06D1  
                            l984 071F                              l976 0711                              l994 06D2  
                            l986 0722                              l978 0713                              l988 0725  
                            l996 06BE                              l998 06E5                              u110 0774  
                            u111 0773                              u200 07EA                              u120 0785  
                            u201 07E9                              u121 0784                              u130 07A4  
                            u131 07A3                              u150 07B6                              u151 07B5  
                            u145 07A8                              u170 07CF                              u171 07CE  
                            u165 07B7                              u190 07E5                              u191 07E4  
                            u175 07CB                              u185 07D9                              wreg 0009  
                           l1000 06E8                             l1010 06EE                             l1002 06EA  
                           l1100 0729                             l1020 06F8                             l1012 06EF  
                           l1004 06EB                             l1014 06F0                             l1006 06EC  
                           l1030 0702                             l1022 06FB                             l1016 06F3  
                           l1008 06ED                             l1040 0709                             l1032 0703  
                           l1024 06FE                             l1104 0743                             l1050 0774  
                           l1018 06F4                             l1042 070A                             l1034 0704  
                           l1026 0700                             l1106 0765                             l1060 07A4  
                           l1052 0785                             l1044 070E                             l1036 0705  
                           l1028 0701                             l1108 0768                             l1070 07CF  
                           l1062 07A7                             l1054 0790                             l1046 076E  
                           l1038 0706                             l1080 07EA                             l1072 07D7  
                           l1064 07B2                             l1056 0794                             l1048 0770  
                           l1082 07F5                             l1074 07D8                             l1066 07B6  
                           l1058 079C                             l1090 06C8                             l1076 07DF  
                           l1068 07BD                             l1092 06CB                             l1078 07E5  
                           l1094 06B8                             l1086 06D5                             l1096 06C2  
                           l1088 06BB                             l1098 06C5          __end_of_PWM1_Initialize 06FB  
                           _LATA 010C                             _WPUA 020C                             _main 0743  
                           btemp 007E                             start 0001          __end_of_PWM2_Initialize 0711  
 __size_of_OSCILLATOR_Initialize 0007    __end_of_OSCILLATOR_Initialize 06D5                  __end_of___aldiv 07FE  
                          ?_main 0070           ?_Freq_to_Toggle_Period 0026                            _TRISA 008C  
                    ?_PWM1_Start 0070                      ?_PWM2_Start 0070                   _WDT_Initialize 06BE  
               __end_of_PWM_FREQ 06B8                            status 0003                            wtemp0 007E  
                __initialization 07FE                     __end_of_main 076E                           ??_main 0079  
         __end_of_WDT_Initialize 06C2                           _APFCON 011D                           _ANSELA 018C  
                         _BORCON 0116                 ?_PWM1_Initialize 0070                           _ODCONA 028C  
                         _INLVLA 038C                           _OSCCON 0099                           _WDTCON 0097  
                      ??___aldiv 0078              __size_of_PWM1_Start 0003              __size_of_PWM2_Start 0003  
               ?_PWM2_Initialize 0070                  ?_WDT_Initialize 0070                _SYSTEM_Initialize 06D5  
        __end_of__initialization 07FE               ?_SYSTEM_Initialize 0070                   __pcstackCOMMON 0070  
            ??_SYSTEM_Initialize 0070          __size_of_PWM1_PeriodSet 0006                   _OPTION_REGbits 0095  
      PWM1_PeriodSet@periodCount 0070          __size_of_PWM2_PeriodSet 0006        __end_of_SYSTEM_Initialize 06E5  
                     __pmaintext 0743          ??_Freq_to_Toggle_Period 0079                          _PWM1DCH 0D94  
                   ??_PWM1_Start 0070                          _PWM1DCL 0D93                          _PWM2DCH 0DA4  
                        _PWM2DCL 0DA3                          _OSCTUNE 0098                          _PWM1CON 0D9B  
                        _PWM2CON 0DAB                          _PWM1OFH 0D98                          _PWM1OFL 0D97  
                        _PWM2OFH 0DA8                          _PWM1PHH 0D92                          _PWM2OFL 0DA7  
                        _PWM1PHL 0D91                     ??_PWM2_Start 0070                          _PWM2PHH 0DA2  
                        _PWM2PHL 0DA1                          _PWM1PRH 0D96                          _PWM1PRL 0D95  
                        _PWM2PRH 0DA6                          _PWM2PRL 0DA5                          _SLRCONA 030C  
                        ___aldiv 076E               __end_of_PWM1_Start 06BB               __end_of_PWM2_Start 06BE  
                        __ptext1 06D5                          __ptext2 06BE                          __ptext3 06FB  
                        __ptext4 06E5                          __ptext5 0711                          __ptext6 06CE  
                        __ptext7 06BB                          __ptext8 06C8                          __ptext9 06B8  
          _OSCILLATOR_Initialize 06CE                 ___aldiv@dividend 0074         ??_PIN_MANAGER_Initialize 0070  
     __size_of_SYSTEM_Initialize 0010             end_of_initialization 07FE                 ___aldiv@quotient 0022  
                      _PWM1LDCON 0D9F                        _PWM2LDCON 0DAF                        _PWM1OFCON 0DA0  
                      _PWM2OFCON 0DB0                   _PWM1_PeriodSet 06C2                 ??_WDT_Initialize 0070  
                 _PWM2_PeriodSet 06C8                       main@period 0079         __size_of_PWM1_Initialize 0016  
         __end_of_PWM1_PeriodSet 06C8           ?_OSCILLATOR_Initialize 0070           __end_of_PWM2_PeriodSet 06CE  
            start_initialization 07FE         __size_of_PWM2_Initialize 0016  __size_of_PIN_MANAGER_Initialize 0018  
                  _PWM1LDCONbits 0D9F        Freq_to_Toggle_Period@freq 0026                    _PWM2LDCONbits 0DAF  
                ?_PWM1_PeriodSet 0070   __size_of_Freq_to_Toggle_Period 001A    __end_of_Freq_to_Toggle_Period 0743  
                ?_PWM2_PeriodSet 0070                        ___latbits 0000        PWM2_PeriodSet@periodCount 0070  
                  __pcstackBANK0 0020           _PIN_MANAGER_Initialize 0711                         ?___aldiv 0070  
              ??_PWM1_Initialize 0070                  ___aldiv@divisor 0070                ??_PWM2_Initialize 0070  
                ___aldiv@counter 0020                         _PWM1INTE 0D9C                         _PWM1INTF 0D9D  
                       _PWM2INTE 0DAC                         _PWM2INTF 0DAD                         _PWM1TMRH 0D9A  
                       _PWM1TMRL 0D99                         _PWM2TMRH 0DAA                         _PWM2TMRL 0DA9  
                       _PWM_FREQ 06B6                     _PWM1INTFbits 0D9D                     _PWM2INTFbits 0DAD  
        ??_OSCILLATOR_Initialize 0070                 __size_of___aldiv 0090                         __ptext10 06C2  
                       __ptext11 0729                         __ptext12 076E                    __size_of_main 002B  
               ??_PWM1_PeriodSet 0072                 ??_PWM2_PeriodSet 0072                      _PWM1CONbits 0D9B  
                    _PWM2CONbits 0DAB          __size_of_WDT_Initialize 0004          ?_PIN_MANAGER_Initialize 0070  
                _PWM1_Initialize 06E5                       _PWM1CLKCON 0D9E                       _PWM2CLKCON 0DAE  
                  __pstringtext1 06B6            _Freq_to_Toggle_Period 0729                  _PWM2_Initialize 06FB  
                   ___aldiv@sign 0021                       _PWM1_Start 06B8                       _PWM2_Start 06BB  
 __end_of_PIN_MANAGER_Initialize 0729  
